ccollections
defaultdict
p0
(c__builtin__
list
p1
tp2
Rp3
S'b210b3c856ed317431c38146c'
p4
(lp5
cnumpy.core.multiarray
scalar
p6
(cnumpy
dtype
p7
(S'i8'
p8
I0
I1
tp9
Rp10
(I3
S'<'
p11
NNNI-1
I-1
I0
tp12
bS'\x10\x04\x00\x00\x00\x00\x00\x00'
p13
tp14
Rp15
asS'd71162343f00985150402e716'
p16
(lp17
g6
(g10
S'\t\x03\x00\x00\x00\x00\x00\x00'
p18
tp19
Rp20
asS'778dc4f644f32f4c2dbc9de7e'
p21
(lp22
g6
(g10
S'\x8e\x04\x00\x00\x00\x00\x00\x00'
p23
tp24
Rp25
asS'6baab96f012c9f0cd54636c59'
p26
(lp27
g6
(g10
S'\x7f\x04\x00\x00\x00\x00\x00\x00'
p28
tp29
Rp30
asS'bba732bbf77bfa2b9ae22e0f1'
p31
(lp32
g6
(g10
S'q\x00\x00\x00\x00\x00\x00\x00'
p33
tp34
Rp35
asS'5840add329aa8954e29fef9bc'
p36
(lp37
g6
(g10
S'm\x04\x00\x00\x00\x00\x00\x00'
p38
tp39
Rp40
asS'1fb32733c62ddc5695efbfca3'
p41
(lp42
g6
(g10
S'\xd4\x01\x00\x00\x00\x00\x00\x00'
p43
tp44
Rp45
asS'0634c89fa43a545d1a778fd20'
p46
(lp47
g6
(g10
S'\xe6\x02\x00\x00\x00\x00\x00\x00'
p48
tp49
Rp50
asS'52b4a443ef37e570da89e89e4'
p51
(lp52
g6
(g10
S'~\x04\x00\x00\x00\x00\x00\x00'
p53
tp54
Rp55
asS'b6b0f5c09bf08f2a45802707b'
p56
(lp57
g6
(g10
S'\x8d\x01\x00\x00\x00\x00\x00\x00'
p58
tp59
Rp60
asS'7fe3fdb75f10e4324dd4bcb0e'
p61
(lp62
g45
asS'f17ad4bd13c000e16faa87e90'
p63
(lp64
g6
(g10
S'\x93\x05\x00\x00\x00\x00\x00\x00'
p65
tp66
Rp67
asS'38345b549f80e164d1b3f6e5e'
p68
(lp69
g6
(g10
S'h\x03\x00\x00\x00\x00\x00\x00'
p70
tp71
Rp72
asS'ef3eec7d9854e5f729e9607d6'
p73
(lp74
g6
(g10
S'\xa0\x00\x00\x00\x00\x00\x00\x00'
p75
tp76
Rp77
asS'c7d3d9fa70d9059781188327c'
p78
(lp79
g6
(g10
S'#\x00\x00\x00\x00\x00\x00\x00'
p80
tp81
Rp82
asS'af35c418fa1318b6b072c56d7'
p83
(lp84
g6
(g10
S'\xde\x01\x00\x00\x00\x00\x00\x00'
p85
tp86
Rp87
asS'e4e0031e47d34e672d2c0def0'
p88
(lp89
g6
(g10
S'T\x01\x00\x00\x00\x00\x00\x00'
p90
tp91
Rp92
asS'07cb4a2b75b11c81eb8f64ad8'
p93
(lp94
g6
(g10
S'h\x04\x00\x00\x00\x00\x00\x00'
p95
tp96
Rp97
asS'43a7efe7169e55372bc8078ca'
p98
(lp99
g6
(g10
S'\xc2\x05\x00\x00\x00\x00\x00\x00'
p100
tp101
Rp102
asS'5dfb71c1ffa0d243c6deeef6a'
p103
(lp104
g6
(g10
S'\xe5\x02\x00\x00\x00\x00\x00\x00'
p105
tp106
Rp107
asS'40bc88371f1727b548076c840'
p108
(lp109
g6
(g10
S'\x14\x02\x00\x00\x00\x00\x00\x00'
p110
tp111
Rp112
asS'9306f3c9dc82d67a61bfcfde6'
p113
(lp114
g6
(g10
S'\x1e\x00\x00\x00\x00\x00\x00\x00'
p115
tp116
Rp117
asS'00ab9cdefab5675cf39d9789c'
p118
(lp119
g6
(g10
S'\xe3\x04\x00\x00\x00\x00\x00\x00'
p120
tp121
Rp122
asS'0c4d4e2c04348418e6d5996d3'
p123
(lp124
g77
asS'bfcf650961a146686698913f8'
p125
(lp126
g6
(g10
S',\x04\x00\x00\x00\x00\x00\x00'
p127
tp128
Rp129
asS'84513c55f8b64f68ead585132'
p130
(lp131
g6
(g10
S'\x02\x02\x00\x00\x00\x00\x00\x00'
p132
tp133
Rp134
asS'141d2c792788832ede59e4bbc'
p135
(lp136
g6
(g10
S'&\x03\x00\x00\x00\x00\x00\x00'
p137
tp138
Rp139
asS'5684cd5e9dfb6dab46ac3b734'
p140
(lp141
g6
(g10
S'\x01\x04\x00\x00\x00\x00\x00\x00'
p142
tp143
Rp144
asS'8b28beaa9f1e6af2de0bc7c4d'
p145
(lp146
g6
(g10
S'+\x06\x00\x00\x00\x00\x00\x00'
p147
tp148
Rp149
asS'72fac25912ca1483aad6f253d'
p150
(lp151
g6
(g10
S'\x7f\x04\x00\x00\x00\x00\x00\x00'
p152
tp153
Rp154
asS'8a407672a6573a1e7225bd2cd'
p155
(lp156
g6
(g10
S'z\x03\x00\x00\x00\x00\x00\x00'
p157
tp158
Rp159
asS'c0c444c5ed3020fccbc5c0820'
p160
(lp161
g6
(g10
S'\xff\x00\x00\x00\x00\x00\x00\x00'
p162
tp163
Rp164
asS'de7ba065b3d215a8c66b2ef0e'
p165
(lp166
g6
(g10
S'=\x04\x00\x00\x00\x00\x00\x00'
p167
tp168
Rp169
asS'10986659dc680fd7d97a38783'
p170
(lp171
g6
(g10
S'\xf6\x04\x00\x00\x00\x00\x00\x00'
p172
tp173
Rp174
asS'515310fbd4c781ae9743abf92'
p175
(lp176
g6
(g10
S'\x00\x01\x00\x00\x00\x00\x00\x00'
p177
tp178
Rp179
asS'cbe255496a7a92da2ecad3865'
p180
(lp181
g6
(g10
S'X\x01\x00\x00\x00\x00\x00\x00'
p182
tp183
Rp184
asS'187f98f65b76a3a1fd1ac408d'
p185
(lp186
g6
(g10
S'\x12\x05\x00\x00\x00\x00\x00\x00'
p187
tp188
Rp189
asS'e590b6e2981cd338ba1729e0b'
p190
(lp191
g6
(g10
S'\x9d\x00\x00\x00\x00\x00\x00\x00'
p192
tp193
Rp194
asS'3e6f7762838bf944f5cc80393'
p195
(lp196
g6
(g10
S'S\x03\x00\x00\x00\x00\x00\x00'
p197
tp198
Rp199
asS'2600e38dccc13f6cb7b70799d'
p200
(lp201
g6
(g10
S'L\x00\x00\x00\x00\x00\x00\x00'
p202
tp203
Rp204
asS'6c58f8c77e1eb6f29f9e7ce56'
p205
(lp206
g6
(g10
S'\xa3\x00\x00\x00\x00\x00\x00\x00'
p207
tp208
Rp209
asS'1eaf8b5e73c394797bafc4938'
p210
(lp211
g6
(g10
S'\xd5\x00\x00\x00\x00\x00\x00\x00'
p212
tp213
Rp214
asS'f847660ac5edb63012a8eda90'
p215
(lp216
g6
(g10
S'l\x06\x00\x00\x00\x00\x00\x00'
p217
tp218
Rp219
asS'1eef71ac5e52465de80cc7a4c'
p220
(lp221
g6
(g10
S'\xdc\x01\x00\x00\x00\x00\x00\x00'
p222
tp223
Rp224
asS'eec6c594ccaea692993f60104'
p225
(lp226
g6
(g10
S'\xe0\x02\x00\x00\x00\x00\x00\x00'
p227
tp228
Rp229
asS'ee7d33159d412c5b48167c685'
p230
(lp231
g6
(g10
S'\xa8\x01\x00\x00\x00\x00\x00\x00'
p232
tp233
Rp234
asS'7176aba95e90de0848a8c37f0'
p235
(lp236
g6
(g10
S'/\x02\x00\x00\x00\x00\x00\x00'
p237
tp238
Rp239
asS'c638d43d10126148f1a71f1b6'
p240
(lp241
g6
(g10
S'i\x05\x00\x00\x00\x00\x00\x00'
p242
tp243
Rp244
asS'994c4b8b6bcc676e2de776ab8'
p245
(lp246
g209
asS'82238194dfae4bdb2d7b075bc'
p247
(lp248
g6
(g10
S'\x7f\x04\x00\x00\x00\x00\x00\x00'
p249
tp250
Rp251
asS'7e2e449e03948ca4d8ee28fd1'
p252
(lp253
g6
(g10
S'\xbd\x01\x00\x00\x00\x00\x00\x00'
p254
tp255
Rp256
asS'94a861a0c4d2ee9e0df0c451e'
p257
(lp258
g6
(g10
S'\xbd\x05\x00\x00\x00\x00\x00\x00'
p259
tp260
Rp261
asS'025ef62bcceb7dfa08c01ea35'
p262
(lp263
g6
(g10
S'b\x00\x00\x00\x00\x00\x00\x00'
p264
tp265
Rp266
asS'faec24c202865d989ac4d2b05'
p267
(lp268
g6
(g10
S'\r\x07\x00\x00\x00\x00\x00\x00'
p269
tp270
Rp271
asS'1bb4aa7ad3e57d08040ba81c3'
p272
(lp273
g6
(g10
S'\xa3\x00\x00\x00\x00\x00\x00\x00'
p274
tp275
Rp276
asS'1e9cf0abf5ce8d0f2d8fb1072'
p277
(lp278
g55
asS'c3bff7c1f53d8168c5a5414f2'
p279
(lp280
g6
(g10
S'_\x06\x00\x00\x00\x00\x00\x00'
p281
tp282
Rp283
asS'ff76eb1a9732067a035abc705'
p284
(lp285
g6
(g10
S'T\x03\x00\x00\x00\x00\x00\x00'
p286
tp287
Rp288
asS'b611ec569975edaedec6e4754'
p289
(lp290
g6
(g10
S'\x13\x06\x00\x00\x00\x00\x00\x00'
p291
tp292
Rp293
asS'b304ef71c5d6a8e82bccd5782'
p294
(lp295
g6
(g10
S'\xc7\x01\x00\x00\x00\x00\x00\x00'
p296
tp297
Rp298
asS'b6c604e2a55300088535eb262'
p299
(lp300
g92
asS'567f40fdb1036291174007ccb'
p301
(lp302
g6
(g10
S'\xbb\x00\x00\x00\x00\x00\x00\x00'
p303
tp304
Rp305
asS'6c2680ffa016fbd0ae1c6ad46'
p306
(lp307
g6
(g10
S'\x06\x03\x00\x00\x00\x00\x00\x00'
p308
tp309
Rp310
asS'987e8d16f5e01d9da804d85c2'
p311
(lp312
g6
(g10
S'\x1f\x06\x00\x00\x00\x00\x00\x00'
p313
tp314
Rp315
asS'4dae9c12fd5745e6e750fe947'
p316
(lp317
g35
asS'afef720002e1194e2f46e221b'
p318
(lp319
g6
(g10
S'\x8a\x04\x00\x00\x00\x00\x00\x00'
p320
tp321
Rp322
asS'0eb61e08dd80c32f773b1352a'
p323
(lp324
g6
(g10
S'\xdd\x04\x00\x00\x00\x00\x00\x00'
p325
tp326
Rp327
asS'936aa9c2a9ceb5acc1c2a42d3'
p328
(lp329
g6
(g10
S'\x96\x05\x00\x00\x00\x00\x00\x00'
p330
tp331
Rp332
asS'0a29555e9199eb59dfa9c521b'
p333
(lp334
g6
(g10
S'q\x06\x00\x00\x00\x00\x00\x00'
p335
tp336
Rp337
asS'13a33b14cb4bd414a326d3ada'
p338
(lp339
g6
(g10
S'-\x02\x00\x00\x00\x00\x00\x00'
p340
tp341
Rp342
asS'ef844ce4b7300c2650716b532'
p343
(lp344
g6
(g10
S'1\x03\x00\x00\x00\x00\x00\x00'
p345
tp346
Rp347
asS'153172f990f16c1dd087c8588'
p348
(lp349
g6
(g10
S'2\x02\x00\x00\x00\x00\x00\x00'
p350
tp351
Rp352
asS'5ccb89b08b26f47b73b7088ac'
p353
(lp354
g174
asS'1d4e72918d8133754472ab2f8'
p355
(lp356
g6
(g10
S' \x00\x00\x00\x00\x00\x00\x00'
p357
tp358
Rp359
ag6
(g10
S'\x05\x01\x00\x00\x00\x00\x00\x00'
p360
tp361
Rp362
ag6
(g10
S'S\x01\x00\x00\x00\x00\x00\x00'
p363
tp364
Rp365
ag6
(g10
S'\xd8\x01\x00\x00\x00\x00\x00\x00'
p366
tp367
Rp368
ag6
(g10
S'0\x02\x00\x00\x00\x00\x00\x00'
p369
tp370
Rp371
ag6
(g10
S'\xfe\x03\x00\x00\x00\x00\x00\x00'
p372
tp373
Rp374
ag55
ag6
(g10
S'\xee\x04\x00\x00\x00\x00\x00\x00'
p375
tp376
Rp377
ag102
ag6
(g10
S'\x19\x07\x00\x00\x00\x00\x00\x00'
p378
tp379
Rp380
ag6
(g10
S'K\x07\x00\x00\x00\x00\x00\x00'
p381
tp382
Rp383
ag6
(g10
S'\x88\x07\x00\x00\x00\x00\x00\x00'
p384
tp385
Rp386
asS'5078842a64a4c399cb76f4ba7'
p387
(lp388
g6
(g10
S'\xd8\x01\x00\x00\x00\x00\x00\x00'
p389
tp390
Rp391
asS'452f02e1b5383abe42a7c2c6d'
p392
(lp393
g6
(g10
S'\xdd\x00\x00\x00\x00\x00\x00\x00'
p394
tp395
Rp396
asS'df32bc1fff9cd35f0da163747'
p397
(lp398
g377
asS'a7fc10e64cb973e01e897a6cf'
p399
(lp400
g6
(g10
S'l\x04\x00\x00\x00\x00\x00\x00'
p401
tp402
Rp403
asS'872a19a6098af5a6d1c92313b'
p404
(lp405
g6
(g10
S'\xb1\x03\x00\x00\x00\x00\x00\x00'
p406
tp407
Rp408
asS'78ea4e2c25e6f00841e71e028'
p409
(lp410
g6
(g10
S'\xfe\x03\x00\x00\x00\x00\x00\x00'
p411
tp412
Rp413
asS'51b1b27049fb8cdbdf33a8286'
p414
(lp415
g6
(g10
S'\x87\x02\x00\x00\x00\x00\x00\x00'
p416
tp417
Rp418
asS'85be34d946eeb17b97dd46ab4'
p419
(lp420
g6
(g10
S'\xe7\x01\x00\x00\x00\x00\x00\x00'
p421
tp422
Rp423
asS'3389a9ae03d55efdbcd5793ac'
p424
(lp425
g6
(g10
S' \x00\x00\x00\x00\x00\x00\x00'
p426
tp427
Rp428
ag6
(g10
S'\xfa\x00\x00\x00\x00\x00\x00\x00'
p429
tp430
Rp431
asS'4e0b666374034896e253fbeb8'
p432
(lp433
g6
(g10
S'|\x03\x00\x00\x00\x00\x00\x00'
p434
tp435
Rp436
asS'4ec02455db93877357dd40bbe'
p437
(lp438
g6
(g10
S'\xab\x01\x00\x00\x00\x00\x00\x00'
p439
tp440
Rp441
asS'ca918705cb4a9f5ef80ecd6b4'
p442
(lp443
g45
asS'36b96e515297c1350862857a3'
p444
(lp445
g6
(g10
S'f\x01\x00\x00\x00\x00\x00\x00'
p446
tp447
Rp448
asS'd037a35b2ac1a934fa2268c3a'
p449
(lp450
g6
(g10
S'\n\x02\x00\x00\x00\x00\x00\x00'
p451
tp452
Rp453
asS'05aa67dddc2c1a42fcd8d1296'
p454
(lp455
g6
(g10
S'\x18\x03\x00\x00\x00\x00\x00\x00'
p456
tp457
Rp458
asS'22e438fb38d12dcdcd7e0a419'
p459
(lp460
g6
(g10
S'e\x01\x00\x00\x00\x00\x00\x00'
p461
tp462
Rp463
asS'd3158b9aa97af347e4fe5d719'
p464
(lp465
g6
(g10
S'R\x01\x00\x00\x00\x00\x00\x00'
p466
tp467
Rp468
asS'b59b8655a7fec11b02f74374f'
p469
(lp470
g6
(g10
S'\xf9\x05\x00\x00\x00\x00\x00\x00'
p471
tp472
Rp473
asS'66cf2e46775dd5eb787e242c6'
p474
(lp475
g60
asS'265d4d9d2d7658c9768f1d75c'
p476
(lp477
g6
(g10
S'\xb2\x04\x00\x00\x00\x00\x00\x00'
p478
tp479
Rp480
asS'af283954a873464b16474b6bd'
p481
(lp482
g6
(g10
S'\xda\x00\x00\x00\x00\x00\x00\x00'
p483
tp484
Rp485
asS'0094fafca0b6c08f8102168bc'
p486
(lp487
g6
(g10
S'\xda\x01\x00\x00\x00\x00\x00\x00'
p488
tp489
Rp490
asS'db7230624d2c494c3b26a5b55'
p491
(lp492
g276
asS'198b305c448aa01bab90392d7'
p493
(lp494
g159
asS'e0492144391bc1733c0b4fd76'
p495
(lp496
g266
asS'da68114c5dd915320e18db4cf'
p497
(lp498
g6
(g10
S'!\x06\x00\x00\x00\x00\x00\x00'
p499
tp500
Rp501
asS'5be21dc4b4c3fbe2d08759bb3'
p502
(lp503
g6
(g10
S'f\x01\x00\x00\x00\x00\x00\x00'
p504
tp505
Rp506
asS'1d6b80b84694726948e7c36cb'
p507
(lp508
g229
asS'c8cddc07ebb4c97936a8bf780'
p509
(lp510
g6
(g10
S'~\x02\x00\x00\x00\x00\x00\x00'
p511
tp512
Rp513
asS'098ab0e226bc952eb2220e2c1'
p514
(lp515
g6
(g10
S'E\x05\x00\x00\x00\x00\x00\x00'
p516
tp517
Rp518
asS'4359e462c6177ee027aface84'
p519
(lp520
g92
asS'e52dd8244e8596a6a9d41637c'
p521
(lp522
g6
(g10
S'\xb0\x01\x00\x00\x00\x00\x00\x00'
p523
tp524
Rp525
asS'909a98c9ac68b24222f03db4c'
p526
(lp527
g6
(g10
S'I\x00\x00\x00\x00\x00\x00\x00'
p528
tp529
Rp530
asS'932c72a01de792b9072366789'
p531
(lp532
g6
(g10
S'Q\x00\x00\x00\x00\x00\x00\x00'
p533
tp534
Rp535
asS'842a70135c0a4d1aec77284aa'
p536
(lp537
g6
(g10
S'"\x03\x00\x00\x00\x00\x00\x00'
p538
tp539
Rp540
asS'd5f00794a52b6023ecd7dbcd5'
p541
(lp542
g6
(g10
S'f\x03\x00\x00\x00\x00\x00\x00'
p543
tp544
Rp545
asS'd463a6999e11c54fd06a95db7'
p546
(lp547
g6
(g10
S'\t\x03\x00\x00\x00\x00\x00\x00'
p548
tp549
Rp550
asS'841994bd0fa75bc33bda0ec3f'
p551
(lp552
g92
asS'9cc1391fe126a629c758fe289'
p553
(lp554
g6
(g10
S'\xfe\x00\x00\x00\x00\x00\x00\x00'
p555
tp556
Rp557
asS'0c08db4cbf29418b27d0f4b14'
p558
(lp559
g6
(g10
S'\xe0\x00\x00\x00\x00\x00\x00\x00'
p560
tp561
Rp562
ag112
ag6
(g10
S'\xbb\x04\x00\x00\x00\x00\x00\x00'
p563
tp564
Rp565
asS'76be4b16f7dab80e3328bcff9'
p566
(lp567
g6
(g10
S'4\x05\x00\x00\x00\x00\x00\x00'
p568
tp569
Rp570
asS'993c361f0a367fa2137386633'
p571
(lp572
g6
(g10
S'\xd5\x00\x00\x00\x00\x00\x00\x00'
p573
tp574
Rp575
asS'acab025474bf544df51e1c762'
p576
(lp577
g506
asS'371afff82edb9fa49266d7af4'
p578
(lp579
g6
(g10
S'S\x00\x00\x00\x00\x00\x00\x00'
p580
tp581
Rp582
asS'19e4051054ae6e7218b5534fc'
p583
(lp584
g117
asS'a736284eb40fcae9ede905ced'
p585
(lp586
g6
(g10
S'/\x00\x00\x00\x00\x00\x00\x00'
p587
tp588
Rp589
asS'c3c7b0d839d18c9e5a1676504'
p590
(lp591
g6
(g10
S'q\x03\x00\x00\x00\x00\x00\x00'
p592
tp593
Rp594
asS'099fcb77c568a18b837b1f3bb'
p595
(lp596
g6
(g10
S'\xdd\x05\x00\x00\x00\x00\x00\x00'
p597
tp598
Rp599
asS'2d1d6c805e0f748c399f63f83'
p600
(lp601
g6
(g10
S'\xb1\x03\x00\x00\x00\x00\x00\x00'
p602
tp603
Rp604
asS'3948cb9fda1f4702c12cb4749'
p605
(lp606
g6
(g10
S'K\x02\x00\x00\x00\x00\x00\x00'
p607
tp608
Rp609
asS'37e65d2b3047dd8938aedfb78'
p610
(lp611
g256
asS'c637181df6dab7817301f36b6'
p612
(lp613
g525
asS'71807f7f046e1d52b79dc1310'
p614
(lp615
g6
(g10
S'\x8f\x03\x00\x00\x00\x00\x00\x00'
p616
tp617
Rp618
asS'7a059545343ef037dede05f6f'
p619
(lp620
g214
asS'6dddaf983f8b9a79afb5c95dd'
p621
(lp622
g6
(g10
S'\x07\x03\x00\x00\x00\x00\x00\x00'
p623
tp624
Rp625
asS'10f56269a9e23f543d9471e76'
p626
(lp627
g6
(g10
S'\xab\x01\x00\x00\x00\x00\x00\x00'
p628
tp629
Rp630
asS'84620ee9e20a8be5c39752d14'
p631
(lp632
g342
asS'6382bb5a1c241b4c22111b20f'
p633
(lp634
g371
asS'2a1fe58194ab60348d6898d79'
p635
(lp636
g6
(g10
S'\x85\x04\x00\x00\x00\x00\x00\x00'
p637
tp638
Rp639
asS'8699cfafb3cf4e1e524c41b14'
p640
(lp641
g575
ag134
ag6
(g10
S'\xac\x04\x00\x00\x00\x00\x00\x00'
p642
tp643
Rp644
asS'ca3743e17bcf50b2a9b2c89c7'
p645
(lp646
g6
(g10
S'2\x02\x00\x00\x00\x00\x00\x00'
p647
tp648
Rp649
asS'9be17de086d546f8f8c4d011c'
p650
(lp651
g6
(g10
S'\xc5\x02\x00\x00\x00\x00\x00\x00'
p652
tp653
Rp654
ag6
(g10
S')\x03\x00\x00\x00\x00\x00\x00'
p655
tp656
Rp657
ag6
(g10
S'\\\x03\x00\x00\x00\x00\x00\x00'
p658
tp659
Rp660
asS'2905ae345202bdc8465a49501'
p661
(lp662
g525
asS'd2b5e2f431497f45d9389f6b3'
p663
(lp664
g6
(g10
S'.\x00\x00\x00\x00\x00\x00\x00'
p665
tp666
Rp667
asS'f505980d16a231436dbe86ae7'
p668
(lp669
g545
asS'a4955f75b7b96943f9e4b071c'
p670
(lp671
g159
asS'c8aa4befbd0da70516af2f43e'
p672
(lp673
g6
(g10
S'\xce\x02\x00\x00\x00\x00\x00\x00'
p674
tp675
Rp676
asS'289726aaf94900dca2cfb6069'
p677
(lp678
g362
asS'13f85b1f73e382b592e5ae6f7'
p679
(lp680
g214
asS'75e52edc4cc8896e3e1b47db1'
p681
(lp682
g6
(g10
S'\xb5\x05\x00\x00\x00\x00\x00\x00'
p683
tp684
Rp685
asS'80776828d4f47f41728e51e1f'
p686
(lp687
g35
asS'818a8503f169fada4f63481d1'
p688
(lp689
g6
(g10
S'\x99\x01\x00\x00\x00\x00\x00\x00'
p690
tp691
Rp692
asS'750da83fa534fbd4fa91c89d6'
p693
(lp694
g6
(g10
S'\x16\x07\x00\x00\x00\x00\x00\x00'
p695
tp696
Rp697
asS'4d3d59d42005ce7559ca7ca97'
p698
(lp699
g6
(g10
S'\xd9\x01\x00\x00\x00\x00\x00\x00'
p700
tp701
Rp702
asS'9b20de8ca0e220eb3c8d4bb9c'
p703
(lp704
g229
asS'827843758f20ae7a28fd16bbe'
p705
(lp706
g6
(g10
S'\xcf\x06\x00\x00\x00\x00\x00\x00'
p707
tp708
Rp709
asS'7cd09cbcaf90d0dd895a6d18d'
p710
(lp711
g6
(g10
S'\xd7\x00\x00\x00\x00\x00\x00\x00'
p712
tp713
Rp714
asS'e621c3246680192298775f24c'
p715
(lp716
g6
(g10
S'\x86\x03\x00\x00\x00\x00\x00\x00'
p717
tp718
Rp719
asS'b1983dac7f4dcde535bd1819a'
p720
(lp721
g6
(g10
S'7\x03\x00\x00\x00\x00\x00\x00'
p722
tp723
Rp724
asS'326bbda89c570ac35e9bc45a1'
p725
(lp726
g667
asS'57094fb16974d399e086e859a'
p727
(lp728
g6
(g10
S'\xf6\x05\x00\x00\x00\x00\x00\x00'
p729
tp730
Rp731
asS'682dab44327e36d47faf2ed37'
p732
(lp733
g6
(g10
S'f\x06\x00\x00\x00\x00\x00\x00'
p734
tp735
Rp736
asS'ab71139adf9842ae29247e189'
p737
(lp738
g6
(g10
S'\xe0\x04\x00\x00\x00\x00\x00\x00'
p739
tp740
Rp741
asS'e46c013920d7e399083b92578'
p742
(lp743
g649
asS'2a587353a29d02ef520ce44bf'
p744
(lp745
g582
asS'672312fbc742f929f048ac725'
p746
(lp747
g224
asS'84e7ee70bf16e08980dd4120f'
p748
(lp749
g67
asS'2ee3b0cd33d8f656f9f9d4832'
p750
(lp751
g6
(g10
S'\xae\x04\x00\x00\x00\x00\x00\x00'
p752
tp753
Rp754
ag6
(g10
S'\x9c\x06\x00\x00\x00\x00\x00\x00'
p755
tp756
Rp757
asS'5cbdeb2886892a7708cf02749'
p758
(lp759
g6
(g10
S'\xce\x02\x00\x00\x00\x00\x00\x00'
p760
tp761
Rp762
asS'8feb6d0924a63c0587f33d204'
p763
(lp764
g77
asS'dcddaa079c10428ed02007017'
p765
(lp766
g169
asS'01034ffe9e9277f0966a002c7'
p767
(lp768
g6
(g10
S'2\x06\x00\x00\x00\x00\x00\x00'
p769
tp770
Rp771
asS'806bf98af845b68ef2a08c417'
p772
(lp773
g6
(g10
S'\xbd\x02\x00\x00\x00\x00\x00\x00'
p774
tp775
Rp776
asS'01362ddb6f8bd943be8286339'
p777
(lp778
g6
(g10
S'\xe5\x04\x00\x00\x00\x00\x00\x00'
p779
tp780
Rp781
ag6
(g10
S'\x02\x05\x00\x00\x00\x00\x00\x00'
p782
tp783
Rp784
asS'96880fe76ff3879436ede547b'
p785
(lp786
g6
(g10
S'c\x06\x00\x00\x00\x00\x00\x00'
p787
tp788
Rp789
asS'a05710b67beae159ee730a0eb'
p790
(lp791
g6
(g10
S'\x1d\x01\x00\x00\x00\x00\x00\x00'
p792
tp793
Rp794
asS'b4fdbb3503f7ddfcfc065f31c'
p795
(lp796
g6
(g10
S'}\x05\x00\x00\x00\x00\x00\x00'
p797
tp798
Rp799
asS'a59cb3fc89e1fbee582f2e7b6'
p800
(lp801
g6
(g10
S'\x04\x02\x00\x00\x00\x00\x00\x00'
p802
tp803
Rp804
asS'd80902ec3a2c2a0d16cf99a36'
p805
(lp806
g6
(g10
S'\xbe\x02\x00\x00\x00\x00\x00\x00'
p807
tp808
Rp809
asS'74846a17bf6e9fd3235da1f9a'
p810
(lp811
g6
(g10
S'\x85\x02\x00\x00\x00\x00\x00\x00'
p812
tp813
Rp814
asS'faa4d5b7d554d687da0e404c6'
p815
(lp816
g6
(g10
S'\x83\x04\x00\x00\x00\x00\x00\x00'
p817
tp818
Rp819
asS'2200695f61f770d808298eb12'
p820
(lp821
g6
(g10
S'\xa0\x06\x00\x00\x00\x00\x00\x00'
p822
tp823
Rp824
asS'529660ecc7966b9b8dbb40434'
p825
(lp826
g6
(g10
S'~\x02\x00\x00\x00\x00\x00\x00'
p827
tp828
Rp829
asS'c1c6c4e9f2892800d4b985be1'
p830
(lp831
g582
asS'd1ce008f5597d0039a13d8918'
p832
(lp833
g239
asS'cbc55e92321d99e30d0f20672'
p834
(lp835
g6
(g10
S'\xe6\x02\x00\x00\x00\x00\x00\x00'
p836
tp837
Rp838
asS'91f97fba5ab2323b9f3501c9e'
p839
(lp840
g6
(g10
S'\x1c\x06\x00\x00\x00\x00\x00\x00'
p841
tp842
Rp843
asS'7e38cedd84b6e98dbdcd9773f'
p844
(lp845
g6
(g10
S'\x10\x04\x00\x00\x00\x00\x00\x00'
p846
tp847
Rp848
asS'b2fce33618a9619dcace270ad'
p849
(lp850
g6
(g10
S'\x99\x00\x00\x00\x00\x00\x00\x00'
p851
tp852
Rp853
asS'253316fd1caa8ba1eecbef750'
p854
(lp855
g234
asS'e3f62aa7ff880d0d569e54c49'
p856
(lp857
g804
asS'83c6481bec404807884765a3d'
p858
(lp859
g6
(g10
S'\x93\x02\x00\x00\x00\x00\x00\x00'
p860
tp861
Rp862
asS'6b349387f32429af68dac7b70'
p863
(lp864
g194
asS'3c4edc2fb4bfc0b954c22f8fa'
p865
(lp866
g6
(g10
S'D\x03\x00\x00\x00\x00\x00\x00'
p867
tp868
Rp869
asS'c9b4d9ac4804313144c3a5ded'
p870
(lp871
g179
asS'59bc2167da5ea9fd5ea15fa71'
p872
(lp873
g6
(g10
S'z\x00\x00\x00\x00\x00\x00\x00'
p874
tp875
Rp876
asS'08e9dd13c4a28e26ad81826b7'
p877
(lp878
g6
(g10
S'\xb0\x03\x00\x00\x00\x00\x00\x00'
p879
tp880
Rp881
ag6
(g10
S'\xda\x03\x00\x00\x00\x00\x00\x00'
p882
tp883
Rp884
ag6
(g10
S'\x13\x05\x00\x00\x00\x00\x00\x00'
p885
tp886
Rp887
ag6
(g10
S'\x1f\x06\x00\x00\x00\x00\x00\x00'
p888
tp889
Rp890
ag6
(g10
S'^\x06\x00\x00\x00\x00\x00\x00'
p891
tp892
Rp893
asS'f3a2d837a0ae82e1bc545c617'
p894
(lp895
g45
asS'61507a1a4c3ed5f8e791151a7'
p896
(lp897
g6
(g10
S'Q\x01\x00\x00\x00\x00\x00\x00'
p898
tp899
Rp900
asS'0b5ebca472553522ff92c7a27'
p901
(lp902
g209
asS'292bf05d7f75fc928c7de17b5'
p903
(lp904
g513
asS'069b7b63e9c44f7d42641ad81'
p905
(lp906
g374
asS'79f52f947925078fd1241dbd9'
p907
(lp908
g545
asS'2904b7ba75d4a670b5218c60e'
p909
(lp910
g6
(g10
S'{\x06\x00\x00\x00\x00\x00\x00'
p911
tp912
Rp913
asS'71bef9cdea0dac9200d7cf94d'
p914
(lp915
g261
asS'77cc7954d8e9e571da99601f8'
p916
(lp917
g570
asS'dae504e2b7f0d30d2dad957a4'
p918
(lp919
g244
asS'bf3348bb58e9d41efb3c08d73'
p920
(lp921
g814
asS'5b703b46a5e997fc8405640fb'
p922
(lp923
g6
(g10
S'\xde\x02\x00\x00\x00\x00\x00\x00'
p924
tp925
Rp926
asS'e76588a307785c75d7f6c8025'
p927
(lp928
g480
asS'f1fa4ec22a6162691cc0dc009'
p929
(lp930
g6
(g10
S'\x10\x04\x00\x00\x00\x00\x00\x00'
p931
tp932
Rp933
asS'b817ec17ac4e0b621431e7e9c'
p934
(lp935
g884
asS'e291e96b2081ae337b086f5ab'
p936
(lp937
g377
asS'd5fd7d26796fd14d2e468b0d7'
p938
(lp939
g463
asS'8039e38710a1d0667f2f9e2bc'
p940
(lp941
g204
asS'f895dea2a053c2f987590c76f'
p942
(lp943
g6
(g10
S'\xfb\x00\x00\x00\x00\x00\x00\x00'
p944
tp945
Rp946
asS'7b9d2b52f1693d8e71311f09d'
p947
(lp948
g6
(g10
S'[\x03\x00\x00\x00\x00\x00\x00'
p949
tp950
Rp951
asS'5c99575ff5b798474507095aa'
p952
(lp953
g6
(g10
S'Q\x00\x00\x00\x00\x00\x00\x00'
p954
tp955
Rp956
asS'67b9ad0bf1abdee449b809bbd'
p957
(lp958
g530
asS'd6d415650bf54c1a0aa12aa0b'
p959
(lp960
g676
asS'87b2c30220f909b0be2a1c4bc'
p961
(lp962
g6
(g10
S'F\x03\x00\x00\x00\x00\x00\x00'
p963
tp964
Rp965
asS'81f3d02cc8cf99341775fe1a9'
p966
(lp967
g453
asS'caa02b3b8c412947f55dd55fb'
p968
(lp969
g667
asS'c52366bef6d3dc9f39c50e46f'
p970
(lp971
g6
(g10
S'\x01\x04\x00\x00\x00\x00\x00\x00'
p972
tp973
Rp974
asS'69051fd8dd7fb6e06337f1ac9'
p975
(lp976
g639
asS'9fcdbb00dcd2d43849e2cf266'
p977
(lp978
g6
(g10
S'\xf8\x00\x00\x00\x00\x00\x00\x00'
p979
tp980
Rp981
asS'e5ba88b80d713518828b6d803'
p982
(lp983
g6
(g10
S'[\x05\x00\x00\x00\x00\x00\x00'
p984
tp985
Rp986
asS'44c8446e14e56fa10baca1b42'
p987
(lp988
g6
(g10
S'\xcf\x02\x00\x00\x00\x00\x00\x00'
p989
tp990
Rp991
ag458
ag843
asS'2c3462235ba07ae126e96a326'
p992
(lp993
g6
(g10
S'+\x06\x00\x00\x00\x00\x00\x00'
p994
tp995
Rp996
asS'07b86f92f77eb8ffc7579eb85'
p997
(lp998
g6
(g10
S'#\x01\x00\x00\x00\x00\x00\x00'
p999
tp1000
Rp1001
asS'4687d8baa657fdabe3dc0e6ab'
p1002
(lp1003
g6
(g10
S'\x1a\x00\x00\x00\x00\x00\x00\x00'
p1004
tp1005
Rp1006
asS'43c798dfb0eb6e68f2c1d2665'
p1007
(lp1008
g6
(g10
S'J\x06\x00\x00\x00\x00\x00\x00'
p1009
tp1010
Rp1011
asS'e618dcf7be6973324fb117ed3'
p1012
(lp1013
g480
asS'c1e2b776c2a0b8ef0e1d01573'
p1014
(lp1015
g134
asS'f5fdf046b64f0ec5bbbc4e5ee'
p1016
(lp1017
g625
asS'656aa4722c03a2d5b7a25e7e8'
p1018
(lp1019
g6
(g10
S'\xcc\x01\x00\x00\x00\x00\x00\x00'
p1020
tp1021
Rp1022
asS'b7f18993be95afe6a6e334e86'
p1023
(lp1024
g6
(g10
S'}\x00\x00\x00\x00\x00\x00\x00'
p1025
tp1026
Rp1027
asS'8fafd3a610f41ccdabd9b0a59'
p1028
(lp1029
g261
asS'69c68b18b4bf7364de6c95e18'
p1030
(lp1031
g448
asS'1182a0ae5db444506e53336c1'
p1032
(lp1033
g310
asS'b860406ed149b23936ee86274'
p1034
(lp1035
g224
asS'2f7552c54b158c886162ff143'
p1036
(lp1037
g6
(g10
S'\xf5\x03\x00\x00\x00\x00\x00\x00'
p1038
tp1039
Rp1040
asS'c8141bd2d830bdb0ff2f6a31c'
p1041
(lp1042
g6
(g10
S'3\x02\x00\x00\x00\x00\x00\x00'
p1043
tp1044
Rp1045
asS'69d1fafd70d31f2ee3613afbe'
p1046
(lp1047
g869
asS'5d20fadddc4acf5a971a1c6b9'
p1048
(lp1049
g6
(g10
S'r\x00\x00\x00\x00\x00\x00\x00'
p1050
tp1051
Rp1052
asS'5342f76a6f7bb4a7a1baba366'
p1053
(lp1054
g30
asS'743c7bc86c6b397fb6dae5cbb'
p1055
(lp1056
g179
asS'6f2daf5c59213e4ecd43c1616'
p1057
(lp1058
g30
asS'273e6f8aa8700e504cfdb6e48'
p1059
(lp1060
g6
(g10
S'\x1a\x05\x00\x00\x00\x00\x00\x00'
p1061
tp1062
Rp1063
asS'dfd944c20e3b3f2114f649768'
p1064
(lp1065
g6
(g10
S'X\x03\x00\x00\x00\x00\x00\x00'
p1066
tp1067
Rp1068
asS'0315456ce7d25707fcb03a34e'
p1069
(lp1070
g35
asS'ab48e7a2ab8a861085959cc35'
p1071
(lp1072
g799
asS'600ef75fece2bf200678b48ad'
p1073
(lp1074
g164
asS'0d86fc9d49c80139c07682230'
p1075
(lp1076
g809
asS'8527b2c09b33ae014decd116d'
p1077
(lp1078
g654
asS'79f09c30f44d6610a7f932f91'
p1079
(lp1080
g685
asS'6a073827a5506e0a0f6725320'
p1081
(lp1082
g82
ag946
ag6
(g10
S'Q\x01\x00\x00\x00\x00\x00\x00'
p1083
tp1084
Rp1085
ag1045
ag6
(g10
S'Q\x02\x00\x00\x00\x00\x00\x00'
p1086
tp1087
Rp1088
ag6
(g10
S'\xe5\x02\x00\x00\x00\x00\x00\x00'
p1089
tp1090
Rp1091
ag408
ag974
ag154
ag741
ag1063
ag6
(g10
S'2\x05\x00\x00\x00\x00\x00\x00'
p1092
tp1093
Rp1094
ag6
(g10
S'\xf6\x05\x00\x00\x00\x00\x00\x00'
p1095
tp1096
Rp1097
ag6
(g10
S'`\x07\x00\x00\x00\x00\x00\x00'
p1098
tp1099
Rp1100
asS'52b6a20625be6b9fb2e68b270'
p1101
(lp1102
g374
asS'7468ab20dfe6b41b83a8c6488'
p1103
(lp1104
g702
ag251
asS'd1e3bf2d92a3475650275906b'
p1105
(lp1106
g6
(g10
S'\x0f\x04\x00\x00\x00\x00\x00\x00'
p1107
tp1108
Rp1109
asS'175632a951b3ecbcd4a6fad91'
p1110
(lp1111
g288
asS'fd516d045cc3deb88aa4fbd01'
p1112
(lp1113
g6
(g10
S'\x9b\x06\x00\x00\x00\x00\x00\x00'
p1114
tp1115
Rp1116
asS'775d5bfc2e3acfc8d6314ac5a'
p1117
(lp1118
g6
(g10
S'\x8d\x01\x00\x00\x00\x00\x00\x00'
p1119
tp1120
Rp1121
asS'21b28bc76f21bfe6f79fcba8e'
p1122
(lp1123
g6
(g10
S'\x0c\x02\x00\x00\x00\x00\x00\x00'
p1124
tp1125
Rp1126
asS'a7996d72189bfab6e6da28304'
p1127
(lp1128
g582
asS'b4bcbccbc80b7753b6bcdfc9d'
p1129
(lp1130
g327
asS'c46f6b8bf5a74ae65b05a2e0c'
p1131
(lp1132
g6
(g10
S'\x0c\x04\x00\x00\x00\x00\x00\x00'
p1133
tp1134
Rp1135
asS'd643518166dfd4439d1afa763'
p1136
(lp1137
g6
(g10
S'\xe7\x01\x00\x00\x00\x00\x00\x00'
p1138
tp1139
Rp1140
asS'be9bd66a3bda473c187489fff'
p1141
(lp1142
g458
asS'8a1bc06732bb2d8525017237a'
p1143
(lp1144
g194
asS'afa09c45db759be4c943ac17e'
p1145
(lp1146
g6
(g10
S'\x97\x01\x00\x00\x00\x00\x00\x00'
p1147
tp1148
Rp1149
asS'ce8c849253d9fd3b0be5e07ed'
p1150
(lp1151
g609
asS'49d87f4a35895238cc3772cc1'
p1152
(lp1153
g618
asS'6b6e1d435eec87e717129c2ab'
p1154
(lp1155
g6
(g10
S'\x8f\x01\x00\x00\x00\x00\x00\x00'
p1156
tp1157
Rp1158
asS'4a6cedaa298a7a168e89a69cd'
p1159
(lp1160
g6
(g10
S'\xa0\x00\x00\x00\x00\x00\x00\x00'
p1161
tp1162
Rp1163
asS'9ce5509edc30637477adf7991'
p1164
(lp1165
g315
asS'37e50338e9c6db10f016a2861'
p1166
(lp1167
g359
asS'29ef181af7e610c70e53202c8'
p1168
(lp1169
g428
ag431
asS'3eb21d2f10576ecacf36d439f'
p1170
(lp1171
g6
(g10
S'P\x03\x00\x00\x00\x00\x00\x00'
p1172
tp1173
Rp1174
asS'dcc0d09965f37967c6a791321'
p1175
(lp1176
g6
(g10
S'\xfc\x06\x00\x00\x00\x00\x00\x00'
p1177
tp1178
Rp1179
asS'3059b59cb92c750dd4cde00eb'
p1180
(lp1181
g428
asS'6d86d42c58c62b2144c55be52'
p1182
(lp1183
g6
(g10
S'\\\x03\x00\x00\x00\x00\x00\x00'
p1184
tp1185
Rp1186
asS'38dafe4e6ba0ed12d29fd703f'
p1187
(lp1188
g468
asS'01e80593d6a835d94eba53958'
p1189
(lp1190
g6
(g10
S'\xfe\x05\x00\x00\x00\x00\x00\x00'
p1191
tp1192
Rp1193
asS'57030b6592c10aae1613dbd40'
p1194
(lp1195
g6
(g10
S'k\x05\x00\x00\x00\x00\x00\x00'
p1196
tp1197
Rp1198
asS'1c484ff5988aa1849efd1a059'
p1199
(lp1200
g368
asS'd1f38e7cef3dfbe93d4968466'
p1201
(lp1202
g6
(g10
S'n\x04\x00\x00\x00\x00\x00\x00'
p1203
tp1204
Rp1205
asS'0b90c2b6bd50380e30601ced0'
p1206
(lp1207
g6
(g10
S'\x7f\x04\x00\x00\x00\x00\x00\x00'
p1208
tp1209
Rp1210
asS'a1a76d91d4997c8d77d8f19ad'
p1211
(lp1212
g1149
asS'3f3da0086347b6aad3b44e1c1'
p1213
(lp1214
g582
ag305
ag6
(g10
S'.\x04\x00\x00\x00\x00\x00\x00'
p1215
tp1216
Rp1217
ag25
asS'3c74d486b78c257474c97b7ea'
p1218
(lp1219
g530
asS'cd42487a6093d647e3934b4f3'
p1220
(lp1221
g6
(g10
S's\x03\x00\x00\x00\x00\x00\x00'
p1222
tp1223
Rp1224
asS'5b39b9dd0eaa5a5cff2bfe57b'
p1225
(lp1226
g6
(g10
S'4\x02\x00\x00\x00\x00\x00\x00'
p1227
tp1228
Rp1229
asS'94ecd5ea007b0652bfc0fccc3'
p1230
(lp1231
g50
asS'624be77a84a40a5c3045ae495'
p1232
(lp1233
g139
ag6
(g10
S"'\x06\x00\x00\x00\x00\x00\x00"
p1234
tp1235
Rp1236
asS'18d72e1c6084fbbac4173a2be'
p1237
(lp1238
g951
asS'0285fec4cc1c57e00b2369050'
p1239
(lp1240
g6
(g10
S'\x04\x03\x00\x00\x00\x00\x00\x00'
p1241
tp1242
Rp1243
asS'87143276b6e39d386afb3bf7a'
p1244
(lp1245
g6
(g10
S'L\x00\x00\x00\x00\x00\x00\x00'
p1246
tp1247
Rp1248
asS'cf66a1bd33779f4a55c85b235'
p1249
(lp1250
g6
(g10
S'\xef\x04\x00\x00\x00\x00\x00\x00'
p1251
tp1252
Rp1253
ag6
(g10
S'\xd2\x06\x00\x00\x00\x00\x00\x00'
p1254
tp1255
Rp1256
asS'2c9c3d58e5f696c70dfa59ab1'
p1257
(lp1258
g6
(g10
S'\xf8\x03\x00\x00\x00\x00\x00\x00'
p1259
tp1260
Rp1261
asS'1184c6ccd8121ce22092ed9a1'
p1262
(lp1263
g6
(g10
S'A\x04\x00\x00\x00\x00\x00\x00'
p1264
tp1265
Rp1266
asS'333d109ad5b26f8eaedbef8e3'
p1267
(lp1268
g814
asS'859ececede072794e0c0dea3b'
p1269
(lp1270
g144
asS'15d6230efae05b7a7a5da398a'
p1271
(lp1272
g974
asS'7b82c9f9115d4ad40092b1c36'
p1273
(lp1274
g956
asS'118f7183fa4b38ed171c54dc3'
p1275
(lp1276
g453
asS'b3764b00c99287174bbae0d01'
p1277
(lp1278
g986
asS'9e37e648e32f9667909a29e75'
p1279
(lp1280
g6
(g10
S'\xc2\x02\x00\x00\x00\x00\x00\x00'
p1281
tp1282
Rp1283
asS'3dbf2d0625aab43afa33936f8'
p1284
(lp1285
g709
asS'fc6dde53af9044ccdd0399715'
p1286
(lp1287
g6
(g10
S'.\x00\x00\x00\x00\x00\x00\x00'
p1288
tp1289
Rp1290
asS'058a6c1b072a042dc18e8999c'
p1291
(lp1292
g431
asS'c71f4c301fface8daa982eca2'
p1293
(lp1294
g6
(g10
S'\x95\x02\x00\x00\x00\x00\x00\x00'
p1295
tp1296
Rp1297
asS'373993f949603aba0c4d34526'
p1298
(lp1299
g535
asS'e0899589ec8a590c8fcba0778'
p1300
(lp1301
g6
(g10
S'f\x04\x00\x00\x00\x00\x00\x00'
p1302
tp1303
Rp1304
asS'3c7a24529549860e2dfc53604'
p1305
(lp1306
g1243
asS'a75efb0a9e71c66a2531ac73b'
p1307
(lp1308
g781
asS'a485ec52a114210e920c4a07a'
p1309
(lp1310
g129
asS'909605310763167f5ffd953c7'
p1311
(lp1312
g6
(g10
S'x\x00\x00\x00\x00\x00\x00\x00'
p1313
tp1314
Rp1315
ag6
(g10
S'\xe6\x00\x00\x00\x00\x00\x00\x00'
p1316
tp1317
Rp1318
ag1022
ag6
(g10
S'\x17\x02\x00\x00\x00\x00\x00\x00'
p1319
tp1320
Rp1321
ag6
(g10
S'k\x04\x00\x00\x00\x00\x00\x00'
p1322
tp1323
Rp1324
ag6
(g10
S'\xc4\x04\x00\x00\x00\x00\x00\x00'
p1325
tp1326
Rp1327
ag771
ag6
(g10
S'/\x07\x00\x00\x00\x00\x00\x00'
p1328
tp1329
Rp1330
asS'6b409466c9afef90cb5a783e1'
p1331
(lp1332
g224
asS'1d1997a32f8a412cacb2a96fc'
p1333
(lp1334
g6
(g10
S'\xac\x06\x00\x00\x00\x00\x00\x00'
p1335
tp1336
Rp1337
asS'd37c97100345615cf55f15060'
p1338
(lp1339
g525
asS'da554c32f45bd6e3abcac9dba'
p1340
(lp1341
g1198
asS'2a1011829f863dc6ff9e74a61'
p1342
(lp1343
g6
(g10
S'*\x01\x00\x00\x00\x00\x00\x00'
p1344
tp1345
Rp1346
asS'4545fb25fd490a426a277b7e3'
p1347
(lp1348
g276
asS'bc454a76e346b1b195becba8f'
p1349
(lp1350
g1174
asS'8e0e2ae078fd40132e4764dff'
p1351
(lp1352
g174
asS'9526ae0d2f64b36718ae67e12'
p1353
(lp1354
g6
(g10
S'\xb6\x03\x00\x00\x00\x00\x00\x00'
p1355
tp1356
Rp1357
asS'cfb82e9497c03ddd8e31ed4fb'
p1358
(lp1359
g1205
asS'6b1ceb86883a177b474adf0e9'
p1360
(lp1361
g6
(g10
S'S\x01\x00\x00\x00\x00\x00\x00'
p1362
tp1363
Rp1364
asS'd6ee4774a9c6dd17c20c9f15e'
p1365
(lp1366
g1315
asS'ba4b4ef2383f38e35fa9350f1'
p1367
(lp1368
g965
asS'2001c942a678bc9ea073a2836'
p1369
(lp1370
g1158
asS'38013400240984e405e815eae'
p1371
(lp1372
g6
(g10
S'\xef\x04\x00\x00\x00\x00\x00\x00'
p1373
tp1374
Rp1375
asS'46088b218bf543b3489c40b2f'
p1376
(lp1377
g1290
asS'eb5bf50fb7311e66dd409698d'
p1378
(lp1379
g1006
asS'88af3cf30215ff2d302b7573f'
p1380
(lp1381
g189
asS'74558a0f00d97599e3df1abd1'
p1382
(lp1383
g67
asS'6bb4bc6b296d0612000c89e27'
p1384
(lp1385
g1091
asS'2f310f46729e6bff39c6db7f1'
p1386
(lp1387
g6
(g10
S'm\x06\x00\x00\x00\x00\x00\x00'
p1388
tp1389
Rp1390
asS'e8bd685ace0560759b9258fc8'
p1391
(lp1392
g799
asS'a524b21d6cf83d564a9e5613f'
p1393
(lp1394
g6
(g10
S'\xca\x06\x00\x00\x00\x00\x00\x00'
p1395
tp1396
Rp1397
asS'd20af97e01dd6cc2d82ad05a9'
p1398
(lp1399
g485
asS'041b797d6658df0bf05e79735'
p1400
(lp1401
g6
(g10
S'*\x02\x00\x00\x00\x00\x00\x00'
p1402
tp1403
Rp1404
asS'18b6c89e63902f269c1f1ed20'
p1405
(lp1406
g974
asS'65b6c8f39a107c473ffe4ea24'
p1407
(lp1408
g667
asS'fd2ab43985d8280b2eb6a3d62'
p1409
(lp1410
g107
asS'39156a52bdb97263f9cb67507'
p1411
(lp1412
g1261
asS'76a638be7c63cfb34575b3eab'
p1413
(lp1414
g87
asS'b40541bb9af3e7f99693412b9'
p1415
(lp1416
g403
asS'7372efb7c6795bfca1f4320ec'
p1417
(lp1418
g1315
asS'd222444929f3b4296dd2fa2a6'
p1419
(lp1420
g6
(g10
S'{\x04\x00\x00\x00\x00\x00\x00'
p1421
tp1422
Rp1423
asS'2ce253bd5964dff1262ebd720'
p1424
(lp1425
g199
asS'24b4ff47dc50b0a34451d3efa'
p1426
(lp1427
g72
asS'6685275994dc342f85150813f'
p1428
(lp1429
g6
(g10
S'\x17\x00\x00\x00\x00\x00\x00\x00'
p1430
tp1431
Rp1432
asS'187b9b5f6d5fd1861245f90c9'
p1433
(lp1434
g15
asS'fc2d6675e62e38ca43a4b3c23'
p1435
(lp1436
g428
ag431
ag1346
ag1364
ag342
ag1261
ag6
(g10
S'\x85\x05\x00\x00\x00\x00\x00\x00'
p1437
tp1438
Rp1439
asS'931a184e547aaefcef32904be'
p1440
(lp1441
g1321
asS'696d304fe524b928d3772207b'
p1442
(lp1443
g1283
asS'9d80716150c29aeb3be06d0b7'
p1444
(lp1445
g838
asS'593cc0a9a87f47694db0ce414'
p1446
(lp1447
g799
asS'def0f8e3eafb4856ee18ea6f1'
p1448
(lp1449
g946
asS'8afd30d18b54ea556b5df1f81'
p1450
(lp1451
g562
asS'f9d4888de2ee45ab7984612bd'
p1452
(lp1453
g799
asS'af1f51a0d770fa34c5ef94a53'
p1454
(lp1455
g97
asS'369b8626dcd978b3b867f0457'
p1456
(lp1457
g6
(g10
S'\x93\x05\x00\x00\x00\x00\x00\x00'
p1458
tp1459
Rp1460
asS'ae72e8974994dd7837582ad4a'
p1461
(lp1462
g6
(g10
S'\x07\x01\x00\x00\x00\x00\x00\x00'
p1463
tp1464
Rp1465
asS'a04bba52235342a92e4e4aca5'
p1466
(lp1467
g946
asS'b6c7fbcd683d03514ec0b20dc'
p1468
(lp1469
g305
asS'f7d6e8e830d53afd27cb064c2'
p1470
(lp1471
g6
(g10
S'\xac\x06\x00\x00\x00\x00\x00\x00'
p1472
tp1473
Rp1474
asS'2c20db0b65a118e612c1d3814'
p1475
(lp1476
g853
asS'0ee921c19b5d57d8ba4ac34bd'
p1477
(lp1478
g1052
asS'5ff383a3f9c614c10fd9f23f5'
p1479
(lp1480
g441
asS'd6052b1f94d9fc4ee3dcb181b'
p1481
(lp1482
g6
(g10
S'\xa5\x03\x00\x00\x00\x00\x00\x00'
p1483
tp1484
Rp1485
asS'2665609425153533954876a2f'
p1486
(lp1487
g184
asS'be2d3a96cb7b2d8cabd4c2c79'
p1488
(lp1489
g6
(g10
S'\x03\x02\x00\x00\x00\x00\x00\x00'
p1490
tp1491
Rp1492
asS'5497b613cdc604939a793820a'
p1493
(lp1494
g1121
asS'dc91e9cca24bed97cc702182f'
p1495
(lp1496
g1423
asS'c455763e82eb5708211009ce7'
p1497
(lp1498
g956
asS'2b5c7d568059a9bb3277fca23'
p1499
(lp1500
g731
asS'b900a7397d90b1cd47390f244'
p1501
(lp1502
g6
(g10
S'\x9c\x00\x00\x00\x00\x00\x00\x00'
p1503
tp1504
Rp1505
asS'ecddec257e422bc7644bd9226'
p1506
(lp1507
g1210
asS'899b2885c8f27d1724005ba11'
p1508
(lp1509
g298
asS'43971aa037f51ce973ac36b4a'
p1510
(lp1511
g1229
asS'bc0af6a2f98b85a6df5c50543'
p1512
(lp1513
g6
(g10
S'\x07\x07\x00\x00\x00\x00\x00\x00'
p1514
tp1515
Rp1516
asS'd22891f77e966bbbffb1ed679'
p1517
(lp1518
g428
asS'82c6487579219e67eeb4e4cc3'
p1519
(lp1520
g6
(g10
S'\n\x02\x00\x00\x00\x00\x00\x00'
p1521
tp1522
Rp1523
asS'679febf949a55e9b5b33292e2'
p1524
(lp1525
g692
asS'48a394e215d62e34d61806e83'
p1526
(lp1527
g67
asS'5abaa0aaf4f0468ca0a451b8c'
p1528
(lp1529
g956
asS'041fc2ac4e54dfd8e9575dcec'
p1530
(lp1531
g6
(g10
S'\x11\x04\x00\x00\x00\x00\x00\x00'
p1532
tp1533
Rp1534
asS'46265512f2d896c385241a601'
p1535
(lp1536
g1224
asS'd4e0a7ae86d10a61237630ed8'
p1537
(lp1538
g6
(g10
S'i\x06\x00\x00\x00\x00\x00\x00'
p1539
tp1540
Rp1541
asS'ebeb939111cf5caecd1d99e1a'
p1542
(lp1543
g67
asS'07ce837f6728548a66d949c07'
p1544
(lp1545
g204
asS'd8d31eb3cb713bc37d510e9cd'
p1546
(lp1547
g654
asS'337bc10d9d6367436150b89ba'
p1548
(lp1549
g1364
asS'f4c6106b19c51ca2fa0b1e59d'
p1550
(lp1551
g244
asS'7872a2f983ad147ad846c3131'
p1552
(lp1553
g843
asS'b5aa1b3c22ce019740e0aef90'
p1554
(lp1555
g352
asS'35edb8f061380c8db2c4b019a'
p1556
(lp1557
g332
asS'683f97d5f4721e12c8fa1a691'
p1558
(lp1559
g1432
asS'7bd414c867ad88c163fea66c9'
p1560
(lp1561
g625
ag1205
asS'b3397bb9b7e26dba8924b5cfe'
p1562
(lp1563
g276
asS'81d168c14be8138a5d37c9050'
p1564
(lp1565
g719
asS'cc95b9a0baa4b826d52cdb210'
p1566
(lp1567
g876
asS'ddbba74992de2a85f20680235'
p1568
(lp1569
g965
asS'532ad159b9b9e3a49c13c18ea'
p1570
(lp1571
g1052
asS'74b522bfeab588568fbbada60'
p1572
(lp1573
g209
asS'7ebae894ba25daec684f21916'
p1574
(lp1575
g1027
asS'b430967917e8cd7b436b01126'
p1576
(lp1577
g6
(g10
S'A\x04\x00\x00\x00\x00\x00\x00'
p1578
tp1579
Rp1580
asS'4ff62bad6334c430542d665aa'
p1581
(lp1582
g1439
asS'e53206526441553f5e74f2db6'
p1583
(lp1584
g1357
asS'01a25b5e85ccb15b9aaacbb6c'
p1585
(lp1586
g887
asS'f691cfdf6645ed69485b94ae2'
p1587
(lp1588
g776
asS'a76b32a48f265492516a6d243'
p1589
(lp1590
g6
(g10
S'}\x05\x00\x00\x00\x00\x00\x00'
p1591
tp1592
Rp1593
ag6
(g10
S'\x10\x07\x00\x00\x00\x00\x00\x00'
p1594
tp1595
Rp1596
asS'6638cd4126b3687e8f96a7a29'
p1597
(lp1598
g784
asS'2cca8093755c837f5f382ef5f'
p1599
(lp1600
g676
ag965
ag736
asS'570f93a311aa9ac171b6f534c'
p1601
(lp1602
g6
(g10
S'\x18\x06\x00\x00\x00\x00\x00\x00'
p1603
tp1604
Rp1605
asS'b12c0f25ef74a042d252c4de9'
p1606
(lp1607
g1423
asS'903a63b7b02a463983066e531'
p1608
(lp1609
g6
(g10
S'T\x03\x00\x00\x00\x00\x00\x00'
p1610
tp1611
Rp1612
asS'b14a193b20e224af4de1318cd'
p1613
(lp1614
g794
ag1404
asS'c846f1776726342bdea482600'
p1615
(lp1616
g224
ag1243
ag473
asS'905d75a4b3c429cec7f4f2f79'
p1617
(lp1618
g657
asS'b0e948602410924cb753b47db'
p1619
(lp1620
g194
asS'ce2d214a19f977652965e1176'
p1621
(lp1622
g853
asS'f422aea49ffd8b1c35d704593'
p1623
(lp1624
g1163
asS'29515526c206fcd5558c15b8a'
p1625
(lp1626
g6
(g10
S'\xb4\x04\x00\x00\x00\x00\x00\x00'
p1627
tp1628
Rp1629
asS'02b991f8e07bae4c707e52ac9'
p1630
(lp1631
g594
asS'bd6b04c2636131a69ca389f4c'
p1632
(lp1633
g1045
asS'8df1fef421b9f534d95213da0'
p1634
(lp1635
g199
asS'3b4966be4f8ee7db0847431a8'
p1636
(lp1637
g463
asS'107608d3ab7d7587fe1dcbf15'
p1638
(lp1639
g6
(g10
S'\xfe\x06\x00\x00\x00\x00\x00\x00'
p1640
tp1641
Rp1642
asS'86fa889c162e6675d1ef765e8'
p1643
(lp1644
g724
asS'ce346ed1c61186e4ca924b313'
p1645
(lp1646
g6
(g10
S'\xba\x04\x00\x00\x00\x00\x00\x00'
p1647
tp1648
Rp1649
asS'6c3381b34bc2e9515c4f80b64'
p1650
(lp1651
g1523
asS'bcda3c57d7810c0d28a92af0f'
p1652
(lp1653
g1534
asS'fbd610626af9ad9dc400449a1'
p1654
(lp1655
g50
asS'1d1cb7c79729918ee36467bda'
p1656
(lp1657
g1465
asS'572d41150d15832486edbff83'
p1658
(lp1659
g6
(g10
S'-\x00\x00\x00\x00\x00\x00\x00'
p1660
tp1661
Rp1662
asS'963068c677dcf166574b06ecd'
p1663
(lp1664
g6
(g10
S'\x17\x03\x00\x00\x00\x00\x00\x00'
p1665
tp1666
Rp1667
asS'7402744909e8be00124cfd2c0'
p1668
(lp1669
g1485
asS'6c8cd6f495fda620026df86b0'
p1670
(lp1671
g6
(g10
S'\xe0\x00\x00\x00\x00\x00\x00\x00'
p1672
tp1673
Rp1674
asS'4c113f0dd0ffcc6fde4c59207'
p1675
(lp1676
g506
asS'c1b05270dfe90969823d06bc0'
p1677
(lp1678
g365
asS'f9037e08cfa172866d7f25957'
p1679
(lp1680
g530
ag6
(g10
S'1\x04\x00\x00\x00\x00\x00\x00'
p1681
tp1682
Rp1683
asS'9d0609c0f3d4460d3a68e1f27'
p1684
(lp1685
g1088
asS'75b393f94417ab525a9ff87ba'
p1686
(lp1687
g6
(g10
S'\xc3\x02\x00\x00\x00\x00\x00\x00'
p1688
tp1689
Rp1690
asS'287aa48fba483293b8eeb022d'
p1691
(lp1692
g1304
asS'26c5c10e9c6ec8f1122f40235'
p1693
(lp1694
g122
asS'b800fb39e8d39d6af70376ed5'
p1695
(lp1696
g463
asS'3129c8a68434849956703e0b1'
p1697
(lp1698
g848
asS'6dc49cf47f45bea3b85f55042'
p1699
(lp1700
g1439
asS'8ef1d28a99921663424ce26c5'
p1701
(lp1702
g784
asS'5f0ce280db674034ea99abaee'
p1703
(lp1704
g6
(g10
S'\xb3\x00\x00\x00\x00\x00\x00\x00'
p1705
tp1706
Rp1707
asS'1700af74418395042c2c67491'
p1708
(lp1709
g418
asS'b4eba1a75177cfff786d1e79b'
p1710
(lp1711
g6
(g10
S'\\\x05\x00\x00\x00\x00\x00\x00'
p1712
tp1713
Rp1714
asS'c569a9e647c27e03c813b101f'
p1715
(lp1716
g1006
asS'18fe73889bc60ce22b90f3634'
p1717
(lp1718
g352
asS'26f2fc4e93116277656b471ad'
p1719
(lp1720
g887
asS'e013bdf86c4a8c3001fd4420d'
p1721
(lp1722
g6
(g10
S'r\x05\x00\x00\x00\x00\x00\x00'
p1723
tp1724
Rp1725
asS'd7db8870ea3c233d77c6e4b20'
p1726
(lp1727
g692
asS'e9fbc5a5b296ebfc8c7e6be61'
p1728
(lp1729
g234
asS'21e47fd88397bc3756de5fc37'
p1730
(lp1731
g342
asS'132fa6a473cfe2e5e454b270a'
p1732
(lp1733
g1346
asS'8f1757d29fe6c2a15dc3aa155'
p1734
(lp1735
g1088
asS'b026d19caacbe31979af22d2f'
p1736
(lp1737
g15
asS'cd92bf1c8318573b7ab205bdc'
p1738
(lp1739
g784
asS'b8cdb27f8216f662ff1b52ea0'
p1740
(lp1741
g6
(g10
S'[\x03\x00\x00\x00\x00\x00\x00'
p1742
tp1743
Rp1744
asS'b4b37930570e4341598888bec'
p1745
(lp1746
g261
asS'f2919fc689668984bd4d9a8a9'
p1747
(lp1748
g1217
asS'bf5b1645f25a313e157f1f68f'
p1749
(lp1750
g266
asS'bacd1ba352e0ae678613c7fa7'
p1751
(lp1752
g1404
asS'd7920feed4dc8737c281d1481'
p1753
(lp1754
g342
asS'78f2e29e3af2dfac1c78c9c99'
p1755
(lp1756
g423
asS'762a75ead190cd17eefcea694'
p1757
(lp1758
g214
asS'f8d434c42af2f43f1d1fe5d58'
p1759
(lp1760
g35
asS'7407e18ea506b503644f527c9'
p1761
(lp1762
g1022
asS'8f322d7feee8c6497255f7d1a'
p1763
(lp1764
g1224
asS'f333e6cddbba75a1b8f93d45a'
p1765
(lp1766
g1088
ag154
asS'e26cb4805def27eb134cc63f0'
p1767
(lp1768
g204
asS'ec3562fe6a69d10a08628e108'
p1769
(lp1770
g352
asS'a43004ea97b90c60a252e0be4'
p1771
(lp1772
g229
asS'67d4ab41cad1a90a1e6e086d1'
p1773
(lp1774
g1290
asS'5e1788b0ebe13dbb28e953bed'
p1775
(lp1776
g565
asS'06489734ba3c9ca52114a931b'
p1777
(lp1778
g6
(g10
S'\x04\x05\x00\x00\x00\x00\x00\x00'
p1779
tp1780
Rp1781
asS'dda909bd0f6aaa6e71884fb43'
p1782
(lp1783
g6
(g10
S'\x08\x03\x00\x00\x00\x00\x00\x00'
p1784
tp1785
Rp1786
asS'dc5c555ac1a78bad3e691bdfa'
p1787
(lp1788
g490
asS'f4716432110b639b072d12c3f'
p1789
(lp1790
g184
asS'2092674c10ec0a510642597d4'
p1791
(lp1792
g6
(g10
S'\x93\x02\x00\x00\x00\x00\x00\x00'
p1793
tp1794
Rp1795
asS'dc42f7fc802bde593993293d1'
p1796
(lp1797
g900
asS'76a26a35494acf034b870e445'
p1798
(lp1799
g1523
asS'1a8423073bdf3be8ece53de7d'
p1800
(lp1801
g814
asS'0cdbd0e309558944d121b68cc'
p1802
(lp1803
g1163
asS'bfc3b9f7454e1effd90fc218e'
p1804
(lp1805
g657
asS'c878e24578308e8ca4343745d'
p1806
(lp1807
g1707
asS'e7c10a72c2c73f8cdea246b47'
p1808
(lp1809
g1683
asS'7e2894d4e28217eb082d81ba9'
p1810
(lp1811
g6
(g10
S'\x04\x02\x00\x00\x00\x00\x00\x00'
p1812
tp1813
Rp1814
asS'1d137bf1e9e77539d291820e5'
p1815
(lp1816
g1492
asS'43da97f4622cb41c5ae3bda2f'
p1817
(lp1818
g1297
asS'5c4dd744234cf3bc1a5e6b17c'
p1819
(lp1820
g1224
asS'c1fd1313338cd60a4335e2db7'
p1821
(lp1822
g35
asS'afb419180172eefa48dad012d'
p1823
(lp1824
g589
asS'bbc6b828824642eab64a7d31d'
p1825
(lp1826
g630
asS'f7e04484b2316c96ddcdb6ac9'
p1827
(lp1828
g35
asS'6316e38acb0a0cb0b977c9b46'
p1829
(lp1830
g288
asS'0a4aa48cc2361b17c42173ea3'
p1831
(lp1832
g347
asS'3e535b60acd4b6abd0e747b1f'
p1833
(lp1834
g946
asS'6d79ae0b8932571e47d141fe0'
p1835
(lp1836
g448
ag926
ag1485
ag848
asS'0f3b05e13a79b76487f030074'
p1837
(lp1838
g1140
asS'cd467cd94fd1ac32f5145e1a0'
p1839
(lp1840
g829
asS'facfeed44703dc9d73bc86b9c'
p1841
(lp1842
g639
asS'9b85a2811b94290f815569d9d'
p1843
(lp1844
g485
asS'4b339bce165064f78498e59f5'
p1845
(lp1846
g1795
asS'0604fd7862aabfaa41ac957e3'
p1847
(lp1848
g1006
asS'e51a2705ccf47cd7aec96e0c7'
p1849
(lp1850
g6
(g10
S'\xbd\x02\x00\x00\x00\x00\x00\x00'
p1851
tp1852
Rp1853
asS'afe244c6bb9f6a679325fca66'
p1854
(lp1855
g315
asS'74958b3b429acc6d8f7ff860d'
p1856
(lp1857
g107
asS'c7ec9dd073863ef0d99e5ffed'
p1858
(lp1859
g1423
asS'8b3e9e0971493d059be7e221e'
p1860
(lp1861
g1224
asS'edf2f1dea794df8c6ca6d05a6'
p1862
(lp1863
g283
asS'eef792cbcf0703e1e9e9cdc7e'
p1864
(lp1865
g362
asS'4f0d8d7995cc024cdd61f0a41'
p1866
(lp1867
g1492
asS'dbbe4f32ff0d2f64ed035bac7'
p1868
(lp1869
g702
asS'e5999c7980b4316eade6dee15'
p1870
(lp1871
g261
asS'3be14acef2e52b916e8deb00e'
p1872
(lp1873
g1266
asS'0c77b8bdea27374fd4d83f9a1'
p1874
(lp1875
g1052
asS'381e650186d3e47b57a53bb0b'
p1876
(lp1877
g6
(g10
S'\x06\x05\x00\x00\x00\x00\x00\x00'
p1878
tp1879
Rp1880
asS'285db8bf2ba8ae6dc4717f5b0'
p1881
(lp1882
g396
asS'9d38a9d100fa8de7a62dd5cb5'
p1883
(lp1884
g1290
asS'94a86d1f0c327a1cc7a52e58c'
p1885
(lp1886
g408
asS'9da0b8c1d0063681e789090f8'
p1887
(lp1888
g179
ag781
ag6
(g10
S'\xf6\x05\x00\x00\x00\x00\x00\x00'
p1889
tp1890
Rp1891
asS'4350e9d77d8193e6686c8ca42'
p1892
(lp1893
g60
asS'fd58c0869a716f0514d27e04b'
p1894
(lp1895
g1290
asS'62173ed815c095f86d4562109'
p1896
(lp1897
g6
(g10
S'\x9e\x05\x00\x00\x00\x00\x00\x00'
p1898
tp1899
Rp1900
asS'25f76b96759650a512273ac98'
p1901
(lp1902
g77
asS'498ddd4529eb9f0596c056fc8'
p1903
(lp1904
g1248
asS'da8b9cca3e45e0db3a2d19c65'
p1905
(lp1906
g473
asS'e769a3f1fff8083bcb6cd9ec9'
p1907
(lp1908
g6
(g10
S'\x7f\x04\x00\x00\x00\x00\x00\x00'
p1909
tp1910
Rp1911
asS'0944c03e6f53f8c583e8f436e'
p1912
(lp1913
g463
asS'6d70aa5b33f131b6d6df146af'
p1914
(lp1915
g501
asS'03564ec5db162ee1dc3faeaed'
p1916
(lp1917
g107
asS'500459c9bec2e53e3f8727f92'
p1918
(lp1919
g550
asS'25a991b2d64a712bc759db92c'
p1920
(lp1921
g644
asS'0b21e6dc414bbd7b3cb3c174e'
p1922
(lp1923
g676
asS'c73ce2ddc608051cc38685060'
p1924
(lp1925
g1330
asS'73a2a15acdc2371b314b0c31c'
p1926
(lp1927
g6
(g10
S'M\x06\x00\x00\x00\x00\x00\x00'
p1928
tp1929
Rp1930
asS'04b4dc1e020a4ef1d138ccd9b'
p1931
(lp1932
g209
asS'39a443da44e33334b994c27b2'
p1933
(lp1934
g189
asS'd8b4aee17fbcb30e3296bde7d'
p1935
(lp1936
g757
asS'29bc06e3c56cc38d7a7014f34'
p1937
(lp1938
g362
asS'5d07d1d84496c65fc83817f94'
p1939
(lp1940
g45
asS'8e0731f63aca028b74ccf3705'
p1941
(lp1942
g535
asS'93ec6a1f857a5d645ca7fd272'
p1943
(lp1944
g676
asS'2cb33dbc77309495bfef5f5a4'
p1945
(lp1946
g589
asS'e71e4b912c4dc595cbbc4adb0'
p1947
(lp1948
g149
asS'74cfb6ba80e47288b58378773'
p1949
(lp1950
g368
asS'f96a178369f73c0e13e886070'
p1951
(lp1952
g1674
asS'47515fc672de18b41f95d6488'
p1953
(lp1954
g981
asS'4b3214182069bc16712459a1b'
p1955
(lp1956
g900
asS'9c2d3722e731b15a04f530ae4'
p1957
(lp1958
g1346
asS'794f0b7d8ea62217a6640bb7e'
p1959
(lp1960
g97
asS'8c9f82c6afbaa9deba4cfefbc'
p1961
(lp1962
g1674
asS'c68b7b8a650f9d78e58eca1b9'
p1963
(lp1964
g408
asS'1ffc5a3ed9460684438627582'
p1965
(lp1966
g692
asS'315ebb5970169a26ac4d0f923'
p1967
(lp1968
g40
asS'5752ef169e0f2afa64a6e09a8'
p1969
(lp1970
g609
asS'bb7f592d0aaafc33de7c855bb'
p1971
(lp1972
g6
(g10
S'\x1a\x03\x00\x00\x00\x00\x00\x00'
p1973
tp1974
Rp1975
asS'8d6816f4f65ba0878b83cb969'
p1976
(lp1977
g1088
asS'1e455cf2b278652363b9f1ab8'
p1978
(lp1979
g6
(g10
S'z\x05\x00\x00\x00\x00\x00\x00'
p1980
tp1981
Rp1982
asS'fe016a050215e4a4cb6d18422'
p1983
(lp1984
g869
asS'277208178212de1ff278a1c78'
p1985
(lp1986
g6
(g10
S'\x19\x07\x00\x00\x00\x00\x00\x00'
p1987
tp1988
Rp1989
asS'7c5d1a3542c7012c38c333e59'
p1990
(lp1991
g310
asS'57634e92c268230b3c664241f'
p1992
(lp1993
g1163
asS'53ae38c93c83e39064f15ba3b'
p1994
(lp1995
g609
asS'ed9015cbe1ae1ce946ff0ef40'
p1996
(lp1997
g276
asS'f6af77a7789440d3e7c6ba7b7'
p1998
(lp1999
g92
asS'a007a70e7c4177596648636b5'
p2000
(lp2001
g639
asS'd42c0fc6f4dc6117b3ed72d2c'
p2002
(lp2003
g1593
asS'ddf47839d30f700ffbe91d143'
p2004
(lp2005
g913
asS'f8acec55800dfbc3ddbe61631'
p2006
(lp2007
g625
asS'308a0317095e497febe5b6152'
p2008
(lp2009
g423
asS'89e0d60ce459b3994602e4ac9'
p2010
(lp2011
g359
asS'e0d3ec2086e81e5f09018aac2'
p2012
(lp2013
g1315
asS'e3f84ffefa8338b51057c549a'
p2014
(lp2015
g525
asS'fba9d215bc430b361071f6aac'
p2016
(lp2017
g1605
asS'9909f88a2bd1e585895a30f51'
p2018
(lp2019
g1027
asS'862fdc5dd0792e848df83d8ba'
p2020
(lp2021
g347
asS'b96b354ce8c39a70028dcf81a'
p2022
(lp2023
g1022
asS'07b01309a53ab5313a1ab47bd'
p2024
(lp2025
g1149
asS'53b616a0f8243cc1d2536d592'
p2026
(lp2027
g6
(g10
S'\xd7\x00\x00\x00\x00\x00\x00\x00'
p2028
tp2029
Rp2030
asS'a4f19a3d94df23d3ce2e8b4cb'
p2031
(lp2032
g256
asS'88a1ce9f3f1d2463f59cf23ad'
p2033
(lp2034
g667
ag266
ag77
ag463
ag256
ag1109
asS'6a7798ba7a6e57d9628466721'
p2035
(lp2036
g1040
asS'e3327816ee731da0107a0aa5e'
p2037
(lp2038
g589
asS'e40ffaa55e7d11600b5ae0db0'
p2039
(lp2040
g224
asS'a9bc963677c060c32d0464a28'
p2041
(lp2042
g557
asS'77fcf694c87379237e4f89570'
p2043
(lp2044
g1707
asS'b704dbf0d8876a4a72ec9a99c'
p2045
(lp2046
g6
(g10
S'+\x06\x00\x00\x00\x00\x00\x00'
p2047
tp2048
Rp2049
asS'e54a9160993dbc0d900000379'
p2050
(lp2051
g1930
asS'837cbd5f2f4ee70a44b30c0e7'
p2052
(lp2053
g1027
ag352
ag97
ag996
asS'b884dc2c1bab5fa9c5381e9df'
p2054
(lp2055
g956
asS'a03f370d712c9e8bcb3d97153'
p2056
(lp2057
g876
asS'2d9474b5796403b9448b26d98'
p2058
(lp2059
g480
asS'9ca5c828a39113277f6a08648'
p2060
(lp2061
g261
asS'4d7c2239e4372a53abae67ae3'
p2062
(lp2063
g6
(g10
S'\xba\x04\x00\x00\x00\x00\x00\x00'
p2064
tp2065
Rp2066
asS'c70d63310f175197b64f5ebc7'
p2067
(lp2068
g1795
asS'37b8cfc24cc4f77587dc9f4aa'
p2069
(lp2070
g436
asS'deb25033f7d858565d0b7bde9'
p2071
(lp2072
g804
asS'dd29e589addabc8dfb09b2046'
p2073
(lp2074
g1210
asS'22a043766383fc145150e1d55'
p2075
(lp2076
g102
asS'5f01d15d28f631d3aed4784d1'
p2077
(lp2078
g1404
asS'02a672f86db6e9bb3c1cb1a94'
p2079
(lp2080
g1853
asS'737eced8232426744ac85ce90'
p2081
(lp2082
g570
asS'd0d3b8c8afc06942bef799bf8'
p2083
(lp2084
g676
asS'113cda255bb5c0c569a2306f7'
p2085
(lp2086
g174
asS'9613f8f0c03f640233b002076'
p2087
(lp2088
g6
(g10
S'\x1e\x06\x00\x00\x00\x00\x00\x00'
p2089
tp2090
Rp2091
asS'bcccd29cb8df8b40c488759bc'
p2092
(lp2093
g6
(g10
S'\xa8\x05\x00\x00\x00\x00\x00\x00'
p2094
tp2095
Rp2096
ag6
(g10
S'8\x07\x00\x00\x00\x00\x00\x00'
p2097
tp2098
Rp2099
asS'5fb535faa3df6f436b601d52b'
p2100
(lp2101
g1149
asS'2a35bc5fdd688dfff3adb97ec'
p2102
(lp2103
g224
asS'43a7e43e81bd381799991441c'
p2104
(lp2105
g92
asS'c4dbc8e2a102c35e74659932d'
p2106
(lp2107
g1126
asS'cb9ffea64761f503e436c5c65'
p2108
(lp2109
g60
asS'5326d4ed6b1e9738bc7295a64'
p2110
(lp2111
g719
asS'275275616770404a2e4cdf631'
p2112
(lp2113
g365
asS'7437888107cfb75a7caa9a531'
p2114
(lp2115
g6
(g10
S't\x03\x00\x00\x00\x00\x00\x00'
p2116
tp2117
Rp2118
asS'b7e3c6d9048b3891c1b0ea7a5'
p2119
(lp2120
g1423
asS'28add69a3a1ad6bd406bf18ff'
p2121
(lp2122
g441
asS'e17d58a1bbd331e687b457e12'
p2123
(lp2124
g359
asS'5becaa5d037f87ccf045ffd80'
p2125
(lp2126
g1022
asS'67add812b27ec1639c8bb1a8b'
p2127
(lp2128
g1690
asS'173a3fe5be2af8975458bcc71'
p2129
(lp2130
g327
asS'1b4879e88ac87239d9d0fb2ea'
p2131
(lp2132
g900
asS'1e490bb791949d818133a7e6a'
p2133
(lp2134
g371
asS'055f2885514d305de7bbf893f'
p2135
(lp2136
g189
asS'9167a5fadfc0ba3e88b23c66b'
p2137
(lp2138
g1357
asS'50b1a027e7eea3580acc79913'
p2139
(lp2140
g714
asS'd86672ab122e80452acd0a8be'
p2141
(lp2142
g714
asS'356a3eabaee0815011b83805f'
p2143
(lp2144
g1210
asS'4f72994310b6b18dfbb2664bd'
p2145
(lp2146
g122
asS'0ddcefc17bbe2f77a5cb00b9c'
p2147
(lp2148
g315
asS'1ced65176947581277284f5d3'
p2149
(lp2150
g453
asS'4fc5509fd9db0a68e626a05ea'
p2151
(lp2152
g1022
asS'0228e51c7b97941c0bf751d1c'
p2153
(lp2154
g468
asS'792b1066eeecc260e5a2a45f0'
p2155
(lp2156
g829
asS'1691d5e30d879d7b1b1615c12'
p2157
(lp2158
g1085
asS'21971bf5d79aff28365ad365a'
p2159
(lp2160
g1667
asS'a2125af2a28f8b2b49f2d9738'
p2161
(lp2162
g1135
asS'ad798add901fdace8121869ca'
p2163
(lp2164
g374
asS'6047aaf2def9c15fd6fd42dd7'
p2165
(lp2166
g396
asS'bac0ff6349b7d0c49e2371d3b'
p2167
(lp2168
g1725
asS'aee71e9758556f42369ef53ab'
p2169
(lp2170
g327
asS'c58c7ec0db94e31ea33fddbf9'
p2171
(lp2172
g50
asS'20882d02867a5c54aaf133f4d'
p2173
(lp2174
g1126
ag2066
asS'7f737370376876457652127f0'
p2175
(lp2176
g391
asS'4cd0432d710cd17380fdb881d'
p2177
(lp2178
g179
ag794
asS'a02bd2fada9b02321f47ae3e8'
p2179
(lp2180
g473
asS'15bce8f96993dfe0cd9ab2bc7'
p2181
(lp2182
g545
asS'f0ea98e5d0c5575a6ec635be3'
p2183
(lp2184
g570
asS'f31051cce45cd727620288de0'
p2185
(lp2186
g1174
asS'48f7926e4ebbcf66289167dfd'
p2187
(lp2188
g164
ag239
ag1781
asS'91ffefeacb87ab6c2f818fac7'
p2189
(lp2190
g72
asS'0fd431da267f1509230db5ada'
p2191
(lp2192
g1714
asS'45578cf13feaef811256b5f2d'
p2193
(lp2194
g194
asS'b002dad5c45fd4c56f212e419'
p2195
(lp2196
g298
asS'9a7ad0c307d617e43bd7a4608'
p2197
(lp2198
g209
asS'3210fda0df16857c54de1d37a'
p2199
(lp2200
g1465
asS'd9fc07895a3f87b426acd6899'
p2201
(lp2202
g214
asS'a76032c124f3e792a25488d07'
p2203
(lp2204
g1001
asS'7f3eb042b57fa60fdc0a4fcd1'
p2205
(lp2206
g881
asS'87c442ee4a2bac9414688e4c5'
p2207
(lp2208
g1891
asS'6eca5ce5666db528184aefa3f'
p2209
(lp2210
g6
(g10
S'\x02\x03\x00\x00\x00\x00\x00\x00'
p2211
tp2212
Rp2213
asS'9afc35dfb2aefb10a18666c19'
p2214
(lp2215
g490
asS'046f82cbdf00b8cacbe41fe68'
p2216
(lp2217
g189
asS'056738585deba47a3b6e8636e'
p2218
(lp2219
g2213
asS'0f0f9ca10ec107e87c90a7f10'
p2220
(lp2221
g1707
asS'dc32ee8d08050a92e014b1627'
p2222
(lp2223
g431
asS'1dd1b0cb2aef3854c36ca6c02'
p2224
(lp2225
g6
(g10
S'X\x04\x00\x00\x00\x00\x00\x00'
p2226
tp2227
Rp2228
asS'c8dfd5db7e22e4cd02b3e407d'
p2229
(lp2230
g418
asS'5dc4fe334f9e0e43efd12859a'
p2231
(lp2232
g1612
asS'85198a9e2489b6a7699c741eb'
p2233
(lp2234
g6
(g10
S'+\x07\x00\x00\x00\x00\x00\x00'
p2235
tp2236
Rp2237
asS'7e5a6a06d160ce729e3a67832'
p2238
(lp2239
g6
(g10
S'\x0c\x03\x00\x00\x00\x00\x00\x00'
p2240
tp2241
Rp2242
asS'28fe47a43e8f9aa9c7e2148e0'
p2243
(lp2244
g174
asS'0b9a54b7a0808145d187a7cf4'
p2245
(lp2246
g667
asS'da98b414e0d3eacb7ee523354'
p2247
(lp2248
g1707
asS'cec4c1c3f287bc18fa83103dd'
p2249
(lp2250
g946
asS'a28adf29c07ab5aeb7bd8dd52'
p2251
(lp2252
g55
asS'fcbf5701e99b37fc672fb2f1b'
p2253
(lp2254
g784
asS'94d1c3be7fa42da6649315cee'
p2255
(lp2256
g199
asS'32767574ac8b6c632b19dd922'
p2257
(lp2258
g1321
asS'191590f57ec052bf42d9c9b98'
p2259
(lp2260
g625
asS'3de52e0b948513d6be0debe4b'
p2261
(lp2262
g441
asS'f80f4c2900f535c4b0b099fa9'
p2263
(lp2264
g276
asS'c034690fa4bf74d0474d599af'
p2265
(lp2266
g1662
asS'd81073ed55ac1eaea4dd08f0f'
p2267
(lp2268
g724
asS'cf7cc489b5eba6a8fbdb49d06'
p2269
(lp2270
g799
asS'effcbdaa8d408eabf7ce4f5a0'
p2271
(lp2272
g1404
asS'9ad9104ac674fe0ba4b219fa6'
p2273
(lp2274
g82
ag1088
ag1094
asS'9bcce0ac182925236dcee5bf2'
p2275
(lp2276
g1149
asS'94cca19842e974fce2fbd3b94'
p2277
(lp2278
g1474
asS'db1a4c4bd47876360abcf56a9'
p2279
(lp2280
g719
asS'a082f0c397edd7de70f2359a9'
p2281
(lp2282
g991
asS'cd57e45c68e14c21f80553320'
p2283
(lp2284
g50
asS'a329c357ec50b73029b314a09'
p2285
(lp2286
g1423
ag149
asS'c53407fab84423e36c90bb238'
p2287
(lp2288
g359
asS'963cbc7d491cd5aa36654a370'
p2289
(lp2290
g1744
asS'0fc3be5d42de6ffac21ca2cd0'
p2291
(lp2292
g1243
asS'7e490010b124f7a03c41e4923'
p2293
(lp2294
g2242
asS'3a0530eb842c9242ae5fd20bc'
p2295
(lp2296
g506
asS'52f67b638af9e6266bbe2251e'
p2297
(lp2298
g244
asS'18a16161bac2a0cf81af88cc0'
p2299
(lp2300
g2030
asS'31a99abc7400857261a82b6f1'
p2301
(lp2302
g1027
asS'a9de8b0e7fa63e305312de38f'
p2303
(lp2304
g102
asS'5b7fc4bbb510698a2e3ef1657'
p2305
(lp2306
g55
asS'90ed3028c07557367cce6b391'
p2307
(lp2308
g1085
asS'696f15f7f4db3ebd865e9492d'
p2309
(lp2310
g1404
asS'01ae91ce740ca01030f546162'
p2311
(lp2312
g809
ag6
(g10
S'&\x03\x00\x00\x00\x00\x00\x00'
p2313
tp2314
Rp2315
ag1068
ag1900
ag1516
ag6
(g10
S'3\x07\x00\x00\x00\x00\x00\x00'
p2316
tp2317
Rp2318
asS'19d601b8864b8ae76514cfd44'
p2319
(lp2320
g117
asS'7a0f2657569f133e0305761e3'
p2321
(lp2322
g342
asS'173547581851880c427d1b172'
p2323
(lp2324
g1158
asS'96a3d3924730b7e0ba1afa9b1'
p2325
(lp2326
g60
asS'688cf834752dd97c1736fb605'
p2327
(lp2328
g697
asS'06217f34c2173dc71dafa3981'
p2329
(lp2330
g956
asS'0471a5d353a2c106186fa826f'
p2331
(lp2332
g530
asS'7b9d0b7360e6782a338376d76'
p2333
(lp2334
g814
asS'e5a1db3e9177ae2e3f0c83aeb'
p2335
(lp2336
g371
asS'fc1585d5f2816ec912524332a'
p2337
(lp2338
g6
(g10
S'\xea\x05\x00\x00\x00\x00\x00\x00'
p2339
tp2340
Rp2341
asS'4a7c4f39976d946d37d0605cc'
p2342
(lp2343
g174
asS'28f12abeb185f3d0bd32983d2'
p2344
(lp2345
g371
asS'22ec9bcbb688c468645b9b84f'
p2346
(lp2347
g1149
asS'af13fed91e7c7421b56f05e99'
p2348
(lp2349
g6
(g10
S'\xf5\x05\x00\x00\x00\x00\x00\x00'
p2350
tp2351
Rp2352
asS'b41b3ca469038b365cfca90d1'
p2353
(lp2354
g396
asS'ae00effb1de1463689abada4c'
p2355
(lp2356
g134
asS'9fe72b817b0696615d7efc856'
p2357
(lp2358
g6
(g10
S'%\x06\x00\x00\x00\x00\x00\x00'
p2359
tp2360
Rp2361
asS'7d04e449dda8343da325f0ba4'
p2362
(lp2363
g92
asS'24f68da53b27a87e12b5c7f45'
p2364
(lp2365
g794
ag1040
asS'bf3138c17ca9ad88014a9cf6c'
p2366
(lp2367
g557
asS'6a517d4885bd5a1d65498fb76'
p2368
(lp2369
g67
asS'1e05fe3b74f4f9ccade726e27'
p2370
(lp2371
g77
asS'e8b82017ae2700fe4a7547f9e'
p2372
(lp2373
g1318
asS'9f8c0754c957167f0e83ae2b7'
p2374
(lp2375
g1911
asS'd4469f01930ae6f878f078f54'
p2376
(lp2377
g667
asS'a23ba5369bcc0bfbfe6f3e1fb'
p2378
(lp2379
g1465
asS'49b3523f5217e06744955719f'
p2380
(lp2381
g473
asS'b32e83b77b74d4adfbd54ae41'
p2382
(lp2383
g209
asS'0f8b83d3c8de64d0348fb592c'
p2384
(lp2385
g654
asS'ff73658137efccf6b379c9953'
p2386
(lp2387
g794
asS'763376a0334b26e1f72558054'
p2388
(lp2389
g50
asS'd04f45a5b7b2c732486e36080'
p2390
(lp2391
g582
asS'7153da3224d0bf4ed5d9835c4'
p2392
(lp2393
g256
asS'21a073a01220fc275ae75791e'
p2394
(lp2395
g1505
ag1121
ag6
(g10
S'\x10\x06\x00\x00\x00\x00\x00\x00'
p2396
tp2397
Rp2398
asS'16578a07d05502683cdee12df'
p2399
(lp2400
g436
asS'918887a604879e16ded732300'
p2401
(lp2402
g956
asS'f253da060e4484fb1d0e5ae74'
p2403
(lp2404
g1140
asS'3dd51f24f0cc44206f6c80c00'
p2405
(lp2406
g876
asS'03191195d47be468bfe969ffb'
p2407
(lp2408
g2049
asS'84fa11355d87f60627b0ac97d'
p2409
(lp2410
g352
asS'ca0cc841260132acbf2bf3b7f'
p2411
(lp2412
g266
asS'a6e32b11df89fdad258b46de3'
p2413
(lp2414
g418
asS'c8ae1f2d095a0872d84663602'
p2415
(lp2416
g557
asS'b773040b1395ea43db3a2c8c9'
p2417
(lp2418
g1707
asS'9e97fd74475084424ab90ce30'
p2419
(lp2420
g1091
asS'669122f281ae7a406ef028c6c'
p2421
(lp2422
g35
asS'3a868ba8e4f7d42a6a342fd0c'
p2423
(lp2424
g468
asS'4372c1714557ddb431aef7e72'
p2425
(lp2426
g685
asS'cbf98d6e723b724f82c63c075'
p2427
(lp2428
g1304
asS'2e1d74faf89553668e9a2c9ba'
p2429
(lp2430
g1786
asS'c21dfb75088d38dfd336fd9fa'
p2431
(lp2432
g144
asS'3591595e4ae6c189f6af5ca9f'
p2433
(lp2434
g1109
asS'c16a578684923548e198abf20'
p2435
(lp2436
g1534
asS'5a3553aceda500b9378ed8684'
p2437
(lp2438
g1432
asS'33c7fc854a66a7ab5cdebadd2'
p2439
(lp2440
g1315
asS'c35f2fc8a1f4b9d363d5669cb'
p2441
(lp2442
g1040
asS'6ff235cb8e0edd4595d3f25fd'
p2443
(lp2444
g599
asS'3f952445dbe171e51efaf65da'
p2445
(lp2446
g2118
asS'ed5f0bf754a82a010a72053c5'
p2447
(lp2448
g149
asS'1de64c750fbb257982d6fc0fc'
p2449
(lp2450
g2242
asS'73e75e2271d167fb2cce21559'
p2451
(lp2452
g991
asS'ae737d68e2bb2ec52fa6ab05d'
p2453
(lp2454
g1068
asS'bc3fa6f32218279be19c0469c'
p2455
(lp2456
g6
(g10
S'\xb1\x06\x00\x00\x00\x00\x00\x00'
p2457
tp2458
Rp2459
asS'23a8939e7aab122cbe4e31922'
p2460
(lp2461
g396
asS'9303db708c50663482c82dc55'
p2462
(lp2463
g625
asS'69dbb92edbe9e6dad4be26be1'
p2464
(lp2465
g67
asS'9c9b328ce826bcf7708c12ee0'
p2466
(lp2467
g1116
asS'54e2f379e55d84646b04158c3'
p2468
(lp2469
g1283
asS'6bb0dfdf33aa657b767c9bd89'
p2470
(lp2471
g618
asS'73c5835e8988a806b942131fd'
p2472
(lp2473
g77
asS'fcead1e4985c3c32af9bffea2'
p2474
(lp2475
g1315
asS'90af51ce2705ffe0cf6b76f6c'
p2476
(lp2477
g1283
asS'a3d442b4f7c2c0d98a0f6e620'
p2478
(lp2479
g1432
asS'130aa1aa0ca335e67bcbda97b'
p2480
(lp2481
g1052
asS'c83ae08a19e9401368329d93f'
p2482
(lp2483
g6
(g10
S'l\x05\x00\x00\x00\x00\x00\x00'
p2484
tp2485
Rp2486
asS'e77c080162bfb9930ad403929'
p2487
(lp2488
g82
asS'e56f56f885b984de9a7ad5cf7'
p2489
(lp2490
g293
asS'edf25c2538205e82d75525398'
p2491
(lp2492
g199
asS'7976d5f7084b31699d5c82237'
p2493
(lp2494
g97
asS'235532793a7bc7824fbd8193a'
p2495
(lp2496
g1346
asS'6e4025c52f8727ec9f293730d'
p2497
(lp2498
g204
asS'1b171329257d45088daf2e2b4'
p2499
(lp2500
g6
(g10
S's\x06\x00\x00\x00\x00\x00\x00'
p2501
tp2502
Rp2503
asS'5b6ef2d3620ec28f679ce7bbd'
p2504
(lp2505
g981
asS'96acab4d678fb79008dab9904'
p2506
(lp2507
g996
asS'1180883947a46a1ab51af17cc'
p2508
(lp2509
g913
asS'bcec2f910e2d88050d6dda083'
p2510
(lp2511
g2228
asS'2f304b352b40efb3e3886f6df'
p2512
(lp2513
g1853
asS'6273d1eca75ec2a0e66ccc044'
p2514
(lp2515
g234
ag1534
ag403
ag2486
ag332
ag1179
ag6
(g10
S'-\x07\x00\x00\x00\x00\x00\x00'
p2516
tp2517
Rp2518
asS'020828d0f2914af2995016a50'
p2519
(lp2520
g1001
asS'08cbc2e917b877520c5f90086'
p2521
(lp2522
g1097
asS'9c1f7859e78248e9717b3eb00'
p2523
(lp2524
g1674
asS'4b0e208916491c9615d37c607'
p2525
(lp2526
g368
asS'49d24ea23c1b99eefb694588b'
p2527
(lp2528
g453
asS'010c839d8cb45872e20c418aa'
p2529
(lp2530
g87
asS'099d6b6fb54fc53ad9343d2c0'
p2531
(lp2532
g1091
asS'3bd10613ba11c7a982a4e1274'
p2533
(lp2534
g991
asS'6d7d5f28656a7947326cf4908'
p2535
(lp2536
g570
asS'6cc372399876914e5990e6ca2'
p2537
(lp2538
g229
asS'6b44868473de95c8c9d9beb7a'
p2539
(lp2540
g266
asS'6abcdf7f0262982cc7371e35d'
p2541
(lp2542
g1126
asS'83cfbcbf3795fad579bae2373'
p2543
(lp2544
g431
asS'2d6be6c75baac1e2ee994a63b'
p2545
(lp2546
g535
asS'2ab1b2e39e1cfab7ec9786473'
p2547
(lp2548
g562
asS'd0ac7443fdb07a6330733e31f'
p2549
(lp2550
g731
asS'a2eb2b87db7808a66d4b52be8'
p2551
(lp2552
g981
asS'deae81ff53d5b8c0a3513cfc8'
p2553
(lp2554
g881
asS'30f55312d0f2024ee18bc2e4a'
p2555
(lp2556
g1364
asS'3c288a9c50e686f35ea253516'
p2557
(lp2558
g814
asS'f0e4d8f02c60b06c7b42f6b82'
p2559
(lp2560
g1318
asS'3de5d345e7ff22a32283cd9a6'
p2561
(lp2562
g513
asS'64fba055162a7d7aa940380e1'
p2563
(lp2564
g575
asS'df02915a648d4be300216854d'
p2565
(lp2566
g618
asS'56c22a042ac859fd0009be60a'
p2567
(lp2568
g6
(g10
S'\x1c\x06\x00\x00\x00\x00\x00\x00'
p2569
tp2570
Rp2571
asS'2d9e337ef1ba6ea9c8ad66339'
p2572
(lp2573
g408
asS'0a4f3c8477ed8151dd7968bc4'
p2574
(lp2575
g1321
asS'896565f8e41e0a62511537c69'
p2576
(lp2577
g1022
asS'47d4a6944c58c634795703921'
p2578
(lp2579
g1364
ag342
asS'2c7e7de3c55945a9284980d04'
p2580
(lp2581
g60
asS'1d6ecd8855b4a221fdcd40552'
p2582
(lp2583
g1364
asS'0b345539e37c23db2383154b9'
p2584
(lp2585
g1174
asS'ddbbc5240d790bc2fdac0ac10'
p2586
(lp2587
g6
(g10
S'\xa5\x06\x00\x00\x00\x00\x00\x00'
p2588
tp2589
Rp2590
asS'c36c59512ebc4c4b78a99c816'
p2591
(lp2592
g1989
asS'0d9191741fe71ed377b7b157f'
p2593
(lp2594
g1439
asS'11ad307d2a1d016f6f2c153fa'
p2595
(lp2596
g359
asS'981200de4f7e46c1df6395225'
p2597
(lp2598
g1707
asS'03310a96bc5e4f6a63d4d7736'
p2599
(lp2600
g6
(g10
S'\xc9\x06\x00\x00\x00\x00\x00\x00'
p2601
tp2602
Rp2603
asS'6d17d697758e2040b1c04b18d'
p2604
(lp2605
g1324
asS'f525ca24c57843a43a99bf471'
p2606
(lp2607
g530
asS'1720e9cd9efc0227881136c9e'
p2608
(lp2609
g1683
asS'65a05b9d4e715499d92257bca'
p2610
(lp2611
g1795
asS'dee2365a8250fe022411c470d'
p2612
(lp2613
g1690
asS'ff79a4bc2cfd06caf42050115'
p2614
(lp2615
g1580
asS'ec6c272eab366bbed4334490c'
p2616
(lp2617
g6
(g10
S'\x0c\x06\x00\x00\x00\x00\x00\x00'
p2618
tp2619
Rp2620
asS'8a8b9552d6f6baa38184467a3'
p2621
(lp2622
g1683
asS'91f2d6ee13a6b3b118014eed8'
p2623
(lp2624
g1891
asS'7a0b698dc8d308f6fd63601ba'
p2625
(lp2626
g383
asS'9f0bee3082b4b29f45b05c77e'
p2627
(lp2628
g6
(g10
S'\x9f\x06\x00\x00\x00\x00\x00\x00'
p2629
tp2630
Rp2631
asS'056c6ab501b2718ec32da494d'
p2632
(lp2633
g234
asS'51d626cbbc70dd9bdddbbab30'
p2634
(lp2635
g1485
asS'92fcfdbc57578f0afb64ed4e3'
p2636
(lp2637
g876
ag441
ag45
ag814
ag1266
ag1304
ag639
ag1198
ag1460
ag2049
ag6
(g10
S'\\\x06\x00\x00\x00\x00\x00\x00'
p2638
tp2639
Rp2640
ag1642
ag2237
ag6
(g10
S'c\x07\x00\x00\x00\x00\x00\x00'
p2641
tp2642
Rp2643
asS'cfc0e8028b7d43dda5d0da2bf'
p2644
(lp2645
g853
asS'caf74b756fdf600851661b2e6'
p2646
(lp2647
g1346
asS'a2b225a2a0567fbd612f34a38'
p2648
(lp2649
g639
asS'4271088223021b02173d19a9e'
p2650
(lp2651
g117
asS'234b16b410b3f7968d226cbab'
p2652
(lp2653
g1198
asS'66ce87d1d36d20e3e2640c91c'
p2654
(lp2655
g174
asS'49aa9385b8217c6f1241b319c'
p2656
(lp2657
g1492
asS'eb64ab9b59ea12d9695301030'
p2658
(lp2659
g557
ag144
ag6
(g10
S'\xe9\x04\x00\x00\x00\x00\x00\x00'
p2660
tp2661
Rp2662
asS'7735ce43c132ca5179828c6d8'
p2663
(lp2664
g266
asS'a9f1804ba45fa3556f37cde92'
p2665
(lp2666
g974
asS'0de4043924884969e06ff592e'
p2667
(lp2668
g2571
asS'4d5150bb5b87fd074f587dbbc'
p2669
(lp2670
g1253
asS'ffac0990ac9ba1621164447d8'
p2671
(lp2672
g884
asS'952872904753a1b2a1e88bb24'
p2673
(lp2674
g1248
asS'203628341333f700bbabe3790'
p2675
(lp2676
g933
asS'eb637bddcdd89a61d97923df8'
p2677
(lp2678
g40
asS'4b5723a5757c6305533782930'
p2679
(lp2680
g771
asS'7172e1dd3b2f525945d8c6040'
p2681
(lp2682
g1714
asS'ddde2c1194f85ba8b6b2466da'
p2683
(lp2684
g799
asS'd63e7199de522431efbfd99e0'
p2685
(lp2686
g1045
asS'b4ef8401f4d13c94b44774e16'
p2687
(lp2688
g82
asS'3905ee757fb4fa9254c4fdbfc'
p2689
(lp2690
g2030
asS'add41e00cb84256dffdc59cf6'
p2691
(lp2692
g72
asS'3925547515d50d0cca8a883a9'
p2693
(lp2694
g1505
asS'ebf39a1d830ad9c8ccf1dd8c9'
p2695
(lp2696
g1853
asS'8f70e1a35453af6457b8554fb'
p2697
(lp2698
g1460
asS'18fbb284f084b8a00ffdab3f8'
p2699
(lp2700
g589
asS'9d2ff79acf8f9057914643dd8'
p2701
(lp2702
g736
asS'12c12ae3cfba4bde869dc9996'
p2703
(lp2704
g776
asS'd0044fc8cb3d0d89c94aa0d24'
p2705
(lp2706
g1283
asS'7488e10851e33c43266211611'
p2707
(lp2708
g2315
asS'9e135c401be128406c01caadb'
p2709
(lp2710
g1662
asS'f71cbf735a5088d98327f7d0e'
p2711
(lp2712
g2030
asS'8d0a54548f6737a11ba84d7ed'
p2713
(lp2714
g266
asS'1ad0b2c7c86af0d4b07a597ca'
p2715
(lp2716
g403
asS'076528704ff1174531dc1e2e1'
p2717
(lp2718
g589
asS'cdcae4a715d36cab9d5bd866b'
p2719
(lp2720
g1052
asS'de463d0b48247c5098d11ca96'
p2721
(lp2722
g1158
asS'1fcf16f7e6750dbcf9a12e13f'
p2723
(lp2724
g423
asS'58bbcd7f81486bc8e3ea7479c'
p2725
(lp2726
g184
asS'58c056c808b2af6b2ea038bc6'
p2727
(lp2728
g371
asS'1f953d2ca85e7b534a94fc722'
p2729
(lp2730
g1006
ag179
ag794
ag1404
ag609
ag418
ag1357
ag1040
ag781
ag784
ag1891
ag293
asS'874d914fa6a314d412e17d3e0'
p2731
(lp2732
g589
asS'518a3315962f39671156f6c25'
p2733
(lp2734
g506
asS'0f8ca0b341f66dfcbccbced51'
p2735
(lp2736
g784
asS'81b0da0be89026262caab597c'
p2737
(lp2738
g1432
asS'18097c7eebe2422a4c385742a'
p2739
(lp2740
g1304
asS'a2015319ed7a3f7fd16b361be'
p2741
(lp2742
g1667
asS'27fe78e46d742689854404aa2'
p2743
(lp2744
g391
asS'13231c95c77f8819de381af0c'
p2745
(lp2746
g1266
asS'71dfbe1bbbe3c823a815c56e7'
p2747
(lp2748
g1505
asS'567f42ed87cb179ab0641fe26'
p2749
(lp2750
g981
asS'76516c8a372ee860a02bec538'
p2751
(lp2752
g1982
asS'503d893c3d2b741b30797d364'
p2753
(lp2754
g1001
asS'edd82fcb6a317bfd3a5cbe53f'
p2755
(lp2756
g468
asS'dfc0d6431e8581b72d6318830'
p2757
(lp2758
g981
asS'36532406c30cced699a556e1c'
p2759
(lp2760
g1612
ag2603
asS'66f256a06d892e281497f0028'
p2761
(lp2762
g428
asS'6361c6f0a1cdb70eb28635190'
p2763
(lp2764
g55
asS'e8bb147fba147648e277d5535'
p2765
(lp2766
g719
asS'20c23f34fdecc4582429a8337'
p2767
(lp2768
g1534
asS'687ddd49cc51d6dec5acd0ffa'
p2769
(lp2770
g1027
asS'abbbe56a7ebbd6b79e009df19'
p2771
(lp2772
g1505
asS'b9ae1d20fa9da9adacc17ca84'
p2773
(lp2774
g179
asS'0592e8e36afb45b5d57fb9fb4'
p2775
(lp2776
g582
asS'3a120412369814c2a4bf12442'
p2777
(lp2778
g1253
asS'a35b4ce7babd2281cf86a87d8'
p2779
(lp2780
g862
asS'4693568116ec01c323941b224'
p2781
(lp2782
g134
asS'ec3903e3aed92e5f9b0943906'
p2783
(lp2784
g724
asS'bacedf6dea6c723677451d6a8'
p2785
(lp2786
g1261
asS'a733266a615b44c5940a83714'
p2787
(lp2788
g239
asS'65662f33c4e3f5d9da2a8fea7'
p2789
(lp2790
g501
asS'e1709863934fa5268654b5c73'
p2791
(lp2792
g741
asS'6e2ccfe2e8d4ad0a5433c7fd4'
p2793
(lp2794
g6
(g10
S'\xad\x04\x00\x00\x00\x00\x00\x00'
p2795
tp2796
Rp2797
asS'8682d021ab018b9816c16afe8'
p2798
(lp2799
g1290
asS'4eb3119093a0264ff65f74e77'
p2800
(lp2801
g2213
asS'a74b1e87572cd64c6abf5537e'
p2802
(lp2803
g234
asS'231de5f56d5b57ca5f1455113'
p2804
(lp2805
g371
asS'95d73b1559ba85904bd28d05b'
p2806
(lp2807
g6
(g10
S'~\x06\x00\x00\x00\x00\x00\x00'
p2808
tp2809
Rp2810
asS'48ec16fdf290002268658a121'
p2811
(lp2812
g82
asS'8c5825d0d49918f235067886e'
p2813
(lp2814
g776
asS'dc5c976f5ce14a6b7f9f17bc6'
p2815
(lp2816
g981
asS'ab2da52d42218d239d7805796'
p2817
(lp2818
g184
asS'475be8c32e1280b5c0416228c'
p2819
(lp2820
g535
asS'21a68be83c4052e4094eb46af'
p2821
(lp2822
g1052
asS'3675df636db8c732f20884639'
p2823
(lp2824
g525
asS'3aa06d1ad866748f3442d4c0f'
p2825
(lp2826
g986
asS'cfee286b2443e238310de98db'
p2827
(lp2828
g365
asS'b2de160ad17709fbc803b9e25'
p2829
(lp2830
g762
asS'92ebcaf4af8db92e6bced283a'
p2831
(lp2832
g87
asS'561572b7a0b395580812bc2e5'
p2833
(lp2834
g396
asS'bf1df0d56155c6e7edce5a457'
p2835
(lp2836
g1304
asS'8f5c8e5104bd387ea5fa05468'
p2837
(lp2838
g453
asS'e03530820deb084ab37b4e19d'
p2839
(lp2840
g1304
asS'bed35a498634aa9a47677ae95'
p2841
(lp2842
g159
asS'ab4bbbbf319ca751d225c6d15'
p2843
(lp2844
g2631
asS'1d662c2f083b4c3d09ef7d15d'
p2845
(lp2846
g1853
ag1629
asS'29bf0f355c8cd200bdc68acdb'
p2847
(lp2848
g589
asS'b1da753ff9171cb51f499f6db'
p2849
(lp2850
g1662
asS'83cb2d3fd89aaf76eda234f5a'
p2851
(lp2852
g276
asS'cbd96fd2ed2f5f7762d48c95b'
p2853
(lp2854
g1193
asS'fa997ffec3b678b72c8b134c5'
p2855
(lp2856
g618
asS'4b39b0678b5b1165ceba0feb5'
p2857
(lp2858
g799
asS'68c469ee95011e79109d30c7a'
p2859
(lp2860
g20
asS'331f1caf01df31b7d317d7cc9'
p2861
(lp2862
g794
ag781
asS'7953e06f9866f79139f905b01'
p2863
(lp2864
g169
asS'da9913395511c0993538fef77'
p2865
(lp2866
g87
asS'd11ff57df2a9662684a173d19'
p2867
(lp2868
g1439
asS'9cc0576353878dab31d08ab77'
p2869
(lp2870
g692
asS'1abb750c9514531974a24043e'
p2871
(lp2872
g67
asS'e9c33e71f3ab19be9d8d0234f'
p2873
(lp2874
g1304
asS'17061c3d4f41954ac4ffaf252'
p2875
(lp2876
g122
asS'4e80d3ec736eef8a5ad82e231'
p2877
(lp2878
g1006
asS'4479abcb191feda7d9d1256cd'
p2879
(lp2880
g214
asS'b2a930bd6e2a5a2f093fd4069'
p2881
(lp2882
g179
asS'0b9dc700f0b4b484340826a20'
p2883
(lp2884
g1327
asS'805fb3c3fe01e87ce7c57f12c'
p2885
(lp2886
g2640
asS'4e58a3f4564c2397e041ad40b'
p2887
(lp2888
g1006
asS'9702186f9a7558b5a8c9d750f'
p2889
(lp2890
g599
asS'0d8ccb970de50acfcce06f812'
p2891
(lp2892
g876
asS'1c821624575b0d599d0b6d39c'
p2893
(lp2894
g1390
asS'8d007b79fc5c890cecf738252'
p2895
(lp2896
g112
asS'b3c9222bfb3226b5a1f676f89'
p2897
(lp2898
g2662
asS'e873c0918aed0b50af92c6c65'
p2899
(lp2900
g876
asS'396aaf7dda66f644725169cac'
p2901
(lp2902
g1040
asS'5674e710d20fa5806fa197c32'
p2903
(lp2904
g298
asS'62cec2b1c4df0ee83d6605b12'
p2905
(lp2906
g362
asS'f9a3a0e892c58a701d76deb00'
p2907
(lp2908
g965
asS'9e6ac3551d2d8e774061e2563'
p2909
(lp2910
g87
asS'c11ac7e33392cd4e610e606ea'
p2911
(lp2912
g6
(g10
S'\xdf\x06\x00\x00\x00\x00\x00\x00'
p2913
tp2914
Rp2915
asS'a689a91b61356cd6fafcfdac3'
p2916
(lp2917
g1629
asS'f080c1ec438209bf0ddac2e6a'
p2918
(lp2919
g310
asS'574d48f9999b6e425d9b8b521'
p2920
(lp2921
g2315
asS'c5a42a488cf4a2aac7d621551'
p2922
(lp2923
g501
asS'dd32adea2683133f5d45daa15'
p2924
(lp2925
g164
asS'29aa2cef769a365d5ed537ce1'
p2926
(lp2927
g676
asS'0decde4a491235965f902b28f'
p2928
(lp2929
g1266
asS'30958c7e0706bc8f987ce038b'
p2930
(lp2931
g991
asS'68fde1c5e41c5119e277da674'
p2932
(lp2933
g530
asS'c0cf4e6f80a123c33e6a8ef03'
p2934
(lp2935
g1163
asS'890bc208d84bdefbcc1278825'
p2936
(lp2937
g1465
asS'1a28605e55a72b3364397b440'
p2938
(lp2939
g271
asS'924d061a9ba98f18dac916588'
p2940
(lp2941
g900
asS'ef0d9943e9da5d405a05c3193'
p2942
(lp2943
g239
asS'749a4e5a7ca0ca0508118af45'
p2944
(lp2945
g1163
asS'a9d36ab8d100b046fcdf263b5'
p2946
(lp2947
g530
asS'be9c8c8c49f54f7234047cbcc'
p2948
(lp2949
g368
asS'6651b7c3bc570e5c8801b6e5c'
p2950
(lp2951
g1052
ag1163
ag506
ag298
ag310
ag933
ag244
ag1193
ag6
(g10
S'i\x06\x00\x00\x00\x00\x00\x00'
p2952
tp2953
Rp2954
ag6
(g10
S'\xfc\x06\x00\x00\x00\x00\x00\x00'
p2955
tp2956
Rp2957
asS'cadeb0d5f803b63fb8447376a'
p2958
(lp2959
g396
ag1492
ag2797
asS'fb7f3ab0d29bd6292eecec2f7'
p2960
(lp2961
g1022
asS'6d94abcb7acae2730ca464cd7'
p2962
(lp2963
g714
ag6
(g10
S'\xb7\x04\x00\x00\x00\x00\x00\x00'
p2964
tp2965
Rp2966
asS'4ed34ecb1f6f22230886402dc'
p2967
(lp2968
g374
asS'f79ee1e1a78e6d15b1056d6ca'
p2969
(lp2970
g881
asS'86659a4177be668b23400bcd8'
p2971
(lp2972
g276
asS'f8759eceb3b069e709d943e8d'
p2973
(lp2974
g154
asS'617eb986f541ae333236f688f'
p2975
(lp2976
g1781
asS'69bca45c48f47bdefc90bd0c2'
p2977
(lp2978
g814
asS'9e0421259a433ed7bf5f0e9fe'
p2979
(lp2980
g368
asS'2bbb65d23f5fe397dc8e06358'
p2981
(lp2982
g396
asS'5f1415ea1acdbc32c08f045f9'
p2983
(lp2984
g1485
asS'63f3acc40eff3d4f932565577'
p2985
(lp2986
g814
asS'b42914552de2e925eabb8b977'
p2987
(lp2988
g557
asS'dd08d3dc5f9310afaced8794f'
p2989
(lp2990
g575
asS'69c32ed6ba92e367ab15f818b'
p2991
(lp2992
g809
asS'5436592531615d37acd69dcd2'
p2993
(lp2994
g2459
asS'cce5304b665d1a90390e8560d'
p2995
(lp2996
g1612
asS'a9df1390aacef798afc7f096f'
p2997
(lp2998
g1315
asS'06e7a947857a00d663284f59a'
p2999
(lp3000
g6
(g10
S'+\x06\x00\x00\x00\x00\x00\x00'
p3001
tp3002
Rp3003
ag6
(g10
S'\xf7\x06\x00\x00\x00\x00\x00\x00'
p3004
tp3005
Rp3006
asS'8c30096df5c7de18b9a2562e8'
p3007
(lp3008
g199
asS'8755b942736d667d0919ceca7'
p3009
(lp3010
g490
asS'8dd7257b358e95aead922281d'
p3011
(lp3012
g933
asS'd260aabede3a2a5782e9a34dd'
p3013
(lp3014
g396
asS'acfc3b39e760a8a844bfb06be'
p3015
(lp3016
g418
asS'3684e4284e0b51897c87307e1'
p3017
(lp3018
g1432
ag276
ag1465
ag184
ag649
ag518
ag2341
ag6
(g10
S'\xc6\x06\x00\x00\x00\x00\x00\x00'
p3019
tp3020
Rp3021
asS'12678bde4290b80cf899b486a'
p3022
(lp3023
g164
asS'39f5216fb71390235938dbbcf'
p3024
(lp3025
g946
asS'1ce092e0a7094f0dbf8b9677a'
p3026
(lp3027
g224
asS'419b947d92ea01689759946b6'
p3028
(lp3029
g618
asS'6a2a75e9d7ecaaab8dbf39a21'
p3030
(lp3031
g305
asS'794adbd689a846b0afe80f756'
p3032
(lp3033
g562
asS'9a850a660156d91373bfb8968'
p3034
(lp3035
g391
asS'4b97d20c1dd068b14a432f288'
p3036
(lp3037
g604
ag1135
asS'c9174ba63f24186aab95895de'
p3038
(lp3039
g1786
asS'79e692bb5f3c35ad76e0b85e7'
p3040
(lp3041
g134
asS'3129ab1ef3187b5aff973cf4f'
p3042
(lp3043
g2486
asS'b4a6a213a13647b22fd53f778'
p3044
(lp3045
g1109
asS'f55da6784a0d9d4ecf0a238e1'
p3046
(lp3047
g1324
asS'e637bfb2680173b3774bbefbf'
p3048
(lp3049
g1068
asS'313218e931f906efcbc4942ed'
p3050
(lp3051
g1375
asS'dbaf9cc37aba04e24e99281b1'
p3052
(lp3053
g485
asS'c84a8cd49c98f8c1b404b7e58'
p3054
(lp3055
g1629
asS'437cdaf5e5716d693b176bed0'
p3056
(lp3057
g974
asS'cfa2fd76fff593095a2d8f008'
p3058
(lp3059
g2228
asS'8c13fc77264613e02ef4ae48e'
p3060
(lp3061
g956
asS'4ca84b1135b0b8e937c80f4c2'
p3062
(lp3063
g6
(g10
S'm\x03\x00\x00\x00\x00\x00\x00'
p3064
tp3065
Rp3066
asS'26d49424f8b0a4c06f345c366'
p3067
(lp3068
g219
asS'9ce9d849278e0bb430cca7f4a'
p3069
(lp3070
g441
asS'82fa4dfe911a6c0660cae0701'
p3071
(lp3072
g194
asS'f29472ce56a3c902d80ec25c2'
p3073
(lp3074
g164
asS'dec85b228de8b5aecd679254c'
p3075
(lp3076
g1505
asS'4b1a012f0ba4ad035f3865e83'
p3077
(lp3078
g1505
asS'a9a96ad406350cddf8295727c'
p3079
(lp3080
g900
asS'41d1f41dba5419614a03e6100'
p3081
(lp3082
g1523
asS'28a4d1118ec97b65dc786e4ca'
p3083
(lp3084
g359
asS'99148ad8bc23950be3b7535cf'
p3085
(lp3086
g575
asS'57ebd25fded226cb1fc2ef7bc'
p3087
(lp3088
g122
asS'514616d57f9f04240c3f6b50c'
p3089
(lp3090
g1243
asS'd1cd31054f4a4365fee0de7f7'
p3091
(lp3092
g754
asS'a13b0a19ecf53eff61af889ec'
p3093
(lp3094
g1327
asS'91f597e726abc7e2dceab518f'
p3095
(lp3096
g1714
asS'ee5de58e502a868ba8f1758e4'
p3097
(lp3098
g1505
asS'770751863478967bc010d558c'
p3099
(lp3100
g3066
asS'23c5a153945c3bc82b1a80fdc'
p3101
(lp3102
g87
asS'ea106a2e95184c5bea1d7130d'
p3103
(lp3104
g229
asS'2677059863c18924df98d6523'
p3105
(lp3106
g625
asS'0021968b77ccf6946c0a37b3a'
p3107
(lp3108
g428
asS'0ee9e4f2d0ce1ea17da969c45'
p3109
(lp3110
g1318
asS'ea3bf486a4e21cfa2e26cc1a4'
p3111
(lp3112
g838
asS'0cf23d96af731c49f4030cd94'
p3113
(lp3114
g709
asS'432400c8adae881b75f89a720'
p3115
(lp3116
g1315
asS'a1f60954cae8f271e9b02e5b4'
p3117
(lp3118
g468
asS'edaf4ce246f104c6348da7000'
p3119
(lp3120
g1163
asS'2c360758260d13b51a88eb85e'
p3121
(lp3122
g164
asS'd684d59550e0ecb46a45465a0'
p3123
(lp3124
g1261
asS'3b14dbb8f285dca5bf9d69ee4'
p3125
(lp3126
g667
asS'b7f5b885419d3891f41493dcd'
p3127
(lp3128
g535
ag2118
ag413
ag1397
asS'409d6898428dba53d4f9a0097'
p3129
(lp3130
g112
asS'069d405b239d3ae6b96eb5ca0'
p3131
(lp3132
g518
asS'c11f7df0936acc8b65d6a3620'
p3133
(lp3134
g754
asS'8635dceee89d95d75e491511c'
p3135
(lp3136
g974
asS'9cc3a94f5e894d7d6f195bfff'
p3137
(lp3138
g884
asS'e01d65f7dbb01c718902d4594'
p3139
(lp3140
g174
ag189
ag570
ag799
ag67
ag261
ag599
ag315
ag913
ag2915
ag271
ag6
(g10
S'E\x07\x00\x00\x00\x00\x00\x00'
p3141
tp3142
Rp3143
ag6
(g10
S'z\x07\x00\x00\x00\x00\x00\x00'
p3144
tp3145
Rp3146
asS'd137b0b5d5eff7c056c9885a3'
p3147
(lp3148
g463
asS'c2e14c74ed5027cf18dfb8064'
p3149
(lp3150
g644
asS'a6eafc98791c6989829e995b8'
p3151
(lp3152
g1126
asS'b08bbbc14e7f0313c1a468044'
p3153
(lp3154
g1357
asS'b2fd3eb7d5c0df8bacb89c80d'
p3155
(lp3156
g719
asS'3698704499cb75f156737b7c5'
p3157
(lp3158
g741
asS'cd7c730a86851d8bfeb6709ab'
p3159
(lp3160
g117
ag900
asS'e18423b46432492b5a8a7626e'
p3161
(lp3162
g6
(g10
S'\xb0\x06\x00\x00\x00\x00\x00\x00'
p3163
tp3164
Rp3165
asS'fc072aee64f96a2d6a59eaa15'
p3166
(lp3167
g1744
asS'dd64d1001e8b0d00d2afa2b81'
p3168
(lp3169
g2662
asS'3cace19c9d233850e8e13745a'
p3170
(lp3171
g1243
asS'0a6ba415fe9e9f730bdf69a37'
p3172
(lp3173
g1853
asS'cc16c49878a5779d439bb378b'
p3174
(lp3175
g169
asS'1bc4039b5ec069082b45c89d6'
p3176
(lp3177
g1304
asS'8235045c901f3962052222fcb'
p3178
(lp3179
g639
asS'bca6108af03e247f03297fa6d'
p3180
(lp3181
g829
asS'504b919f86ae62c60ded5890b'
p3182
(lp3183
g1327
asS'432b960db154e9971ace6c667'
p3184
(lp3185
g117
asS'c997fbb87a80f797258963b08'
p3186
(lp3187
g55
asS'332f3f8658c5cfc16f82ca4ee'
p3188
(lp3189
g771
asS'05a5eb216d245ddcdb906b0e9'
p3190
(lp3191
g107
asS'0c220ae2a65731ab59b9c56ac'
p3192
(lp3193
g630
asS'59431b2c19b179422bf6f5bb4'
p3194
(lp3195
g209
asS'59163271e091775853ad99352'
p3196
(lp3197
g951
asS'49cdaae11c730589c0f863a7d'
p3198
(lp3199
g1091
asS'53d5a0d0148c1919eb7f7010b'
p3200
(lp3201
g1795
asS'eaa0a8e703f8d3af0184ea481'
p3202
(lp3203
g1091
asS'9abecef5b26160624fdcedf88'
p3204
(lp3205
g1404
asS'cb693020bccd77f55ed3a2ab6'
p3206
(lp3207
g1667
ag6
(g10
S'z\x06\x00\x00\x00\x00\x00\x00'
p3208
tp3209
Rp3210
ag6
(g10
S'\xb2\x06\x00\x00\x00\x00\x00\x00'
p3211
tp3212
Rp3213
asS'1368dbdc9143c4f88a551468d'
p3214
(lp3215
g1022
asS'd7de8b35302a2cd381ef63d04'
p3216
(lp3217
g1649
asS'46be5b8f5eb86c1f6f9cd5e1a'
p3218
(lp3219
g1662
asS'40bf55e0dd0161bec35fd02a8'
p3220
(lp3221
g1135
asS'ea73e3d7a4c0c82b5094bb91f'
p3222
(lp3223
g6
(g10
S'>\x06\x00\x00\x00\x00\x00\x00'
p3224
tp3225
Rp3226
asS'280783a7e34e1dc52b6db338b'
p3227
(lp3228
g431
asS'b0bb5c721d68d3a3f5978d774'
p3229
(lp3230
g1290
asS'7f045faffea6d9cdbd4c5cd34'
p3231
(lp3232
g2030
asS'f0b6964eee2b2051c929ab19b'
p3233
(lp3234
g804
asS'449a34953089248bdb010e562'
p3235
(lp3236
g1198
asS'8f07fe65c0b8083d1b1f9669c'
p3237
(lp3238
g1605
asS'f5f5d18f2505c5ac3754f7ad1'
p3239
(lp3240
g6
(g10
S'\x9d\x06\x00\x00\x00\x00\x00\x00'
p3241
tp3242
Rp3243
asS'5cc0e0b3d454d6fbca7c3fa36'
p3244
(lp3245
g589
ag35
ag1149
ag15
asS'713b4f4a574d427148b26dcd2'
p3246
(lp3247
g1649
asS'cbbc61e9e3d44cd7f213d69af'
p3248
(lp3249
g1690
asS'6865eb89594fe26a176459dfc'
p3250
(lp3251
g692
asS'c57d5731f596887851a6cc0a6'
p3252
(lp3253
g1261
asS'17e399aacbe10de0b95c80471'
p3254
(lp3255
g525
asS'4a32090c908ea5a30c7d86fb2'
p3256
(lp3257
g1667
asS'7f84fa900f0204c322a860667'
p3258
(lp3259
g804
asS'816c268a1e635b539ce6e818d'
p3260
(lp3261
g657
asS'acfd27a7d42ff446dba177680'
p3262
(lp3263
g1523
asS'e55ce9337383d1e40321b6c08'
p3264
(lp3265
g819
asS'4da4c1d76d8ffef5700368ced'
p3266
(lp3267
g1390
ag6
(g10
S'\xd8\x06\x00\x00\x00\x00\x00\x00'
p3268
tp3269
Rp3270
asS'86dea6bb51ec7893cff28446f'
p3271
(lp3272
g1523
asS'34ab591fe9ad70166502ddee0'
p3273
(lp3274
g244
asS'15d32b07bcac8ee82c9cc7c08'
p3275
(lp3276
g1321
asS'c6c3028d18321fd585b03bdc4'
p3277
(lp3278
g87
asS'82eb575f159d5074778d161bf'
p3279
(lp3280
g1290
asS'82512a100b63d1c448d03deab'
p3281
(lp3282
g224
asS'32b5511f12c87655d61e975af'
p3283
(lp3284
g741
asS'a869c8b39247c3408d70dd981'
p3285
(lp3286
g408
asS'e924a815f83f7ad45f774b20c'
p3287
(lp3288
g848
asS'f935231c312472a52441bd549'
p3289
(lp3290
g87
asS'ca6ac0b523be8e2210a6b9bb7'
p3291
(lp3292
g174
asS'4d45ef36f5ae6c3ad589a8306'
p3293
(lp3294
g991
asS'b2386d660f821b5cb9dcd239b'
p3295
(lp3296
g1283
ag869
ag6
(g10
S'V\x06\x00\x00\x00\x00\x00\x00'
p3297
tp3298
Rp3299
ag337
asS'a37d7e50418cf5ccc6ebc3213'
p3300
(lp3301
g2662
asS'939a614e5dd3acd88ff07dc33'
p3302
(lp3303
g991
asS'59d066fa4498eecea9941c433'
p3304
(lp3305
g1786
asS'2adf87cbd3566b936f141bf46'
p3306
(lp3307
g45
asS'dc8e1ed75772baebcccfb8321'
p3308
(lp3309
g545
asS'40a0ecb2f24160f5ed8b3f64c'
p3310
(lp3311
g1662
asS'5413f5db2a8d821e71039f51c'
p3312
(lp3313
g485
asS'd6dfa3cfcc0c22468e214ca70'
p3314
(lp3315
g473
asS'073a6bae9bdd378d0949ba237'
p3316
(lp3317
g604
asS'e41cbe918b1fb999265392457'
p3318
(lp3319
g933
asS'73ba1970fbaac120978d9093e'
p3320
(lp3321
g1229
asS'7553b7ade6615b0fcfa0ecd5b'
p3322
(lp3323
g204
asS'26efbee0d8ebb045ca31e968c'
p3324
(lp3325
g261
asS'cca393b4de7392f93537b19fb'
p3326
(lp3327
g293
asS'9c2857b0b4b83e18582192fff'
p3328
(lp3329
g814
asS'00346066aab5d5effb03e2391'
p3330
(lp3331
g609
asS'271dc4c777b7bb5ad567abcce'
p3332
(lp3333
g545
asS'cfdbe75dba6b8ea7d3334dd08'
p3334
(lp3335
g594
asS'db1a138791188ba93348310f4'
p3336
(lp3337
g1485
asS'c999b67d17bfe45c361053aa5'
p3338
(lp3339
g1174
asS'd53b0910a8a5254682831d402'
p3340
(lp3341
g1346
asS'54ca53cf382e90f9327c00c0a'
p3342
(lp3343
g2571
asS'a7783fed112db9e5a042cea17'
p3344
(lp3345
g799
asS'479e55255991b5153fe420e04'
p3346
(lp3347
g2049
asS'5b4b357c3181689bfab812cbc'
p3348
(lp3349
g1880
asS'ce823e74fcb29e0f51bfe47f8'
p3350
(lp3351
g1690
asS'57c51e2112156cdd06333c507'
p3352
(lp3353
g194
asS'7d7079874be3c28d24429b59b'
p3354
(lp3355
g1534
asS'76b25f4933b0c5f7805d782e6'
p3356
(lp3357
g1534
asS'4e02947f07f62b2690ee39535'
p3358
(lp3359
g2352
asS'8c77c4704a4954b5a8afd4021'
p3360
(lp3361
g117
asS'20e263b4fb16f1cd464bec86c'
p3362
(lp3363
g1266
asS'a42446976b01dca1595881954'
p3364
(lp3365
g1116
ag6
(g10
S'<\x07\x00\x00\x00\x00\x00\x00'
p3366
tp3367
Rp3368
ag6
(g10
S'|\x07\x00\x00\x00\x00\x00\x00'
p3369
tp3370
Rp3371
asS'8d169466354684cfbcf54add0'
p3372
(lp3373
g315
asS'eb19c3360e15bdb12ac8aeaae'
p3374
(lp3375
g1649
asS'28ba82c641da9f6d97905ff76'
p3376
(lp3377
g189
asS'076da6977c0e23d039a7cc676'
p3378
(lp3379
g490
asS'8b00f3b79790e44f7b834ffa4'
p3380
(lp3381
g1324
asS'61538aa8116430602b0858568'
p3382
(lp3383
g1085
asS'd79e48710be9556625c89780e'
p3384
(lp3385
g1121
asS'b7954bd8f6ecf5c468f699f59'
p3386
(lp3387
g448
asS'cd36c7608977a11ee1dd511eb'
p3388
(lp3389
g2486
asS'b4e77840c60949e29f7f06333'
p3390
(lp3391
g1052
asS'617e130e93541d19d98f87a72'
p3392
(lp3393
g848
asS'0d32f4d9f9762a9d80110187a'
p3394
(lp3395
g525
ag229
asS'804c3bdd50843d1dbaa9b7532'
p3396
(lp3397
g2662
asS'7cfd0f073e9d4e4bd50d147d8'
p3398
(lp3399
g368
asS'782984d2f1af0a222824b385f'
p3400
(lp3401
g649
asS'e1e9a3d39995ff315d672aacb'
p3402
(lp3403
g1224
asS'206487ba1319a1796c446317b'
p3404
(lp3405
g1853
asS'e4754e4e6b13d81e288a81419'
p3406
(lp3407
g1266
asS'364571f76bb147a3301179590'
p3408
(lp3409
g256
asS'3f141e8d78cee51adfd579036'
p3410
(lp3411
g829
asS'5f995cb058e0f084e3a351c08'
p3412
(lp3413
g2213
ag594
asS'fd932638694af06d959765531'
p3414
(lp3415
g403
asS'56590a611a8d952de8b62b4d7'
p3416
(lp3417
g1346
asS'08c76764b6b5f7af902dd8556'
p3418
(lp3419
g2571
asS'19e1b38e7f6d5d66a650a0402'
p3420
(lp3421
g139
asS'258b606d6128944a602aab623'
p3422
(lp3423
g1261
asS'aeedaea7e56f1ecb6d50ecd65'
p3424
(lp3425
g107
asS'1b37483fe6e1e6e144ebabcae'
p3426
(lp3427
g1040
asS'2757626673d57a2b1e216f5e3'
p3428
(lp3429
g594
asS'c3084072c5aadb2893be971de'
p3430
(lp3431
g305
asS'21cc5e06c9d926b87b440ac8a'
p3432
(lp3433
g199
asS'd7c81072b6fa0ffabddc2bcaf'
p3434
(lp3435
g1088
asS'54814cbd39e37e384bb7a24ef'
p3436
(lp3437
g2091
asS'40f26d7d8adbc5f946ca4edea'
p3438
(lp3439
g1085
asS'3b6f09c2a23e4400907af0da4'
p3440
(lp3441
g315
asS'920ab463d9256de17ad55c95a'
p3442
(lp3443
g6
(g10
S'Y\x03\x00\x00\x00\x00\x00\x00'
p3444
tp3445
Rp3446
asS'abb5645496e037fc53750d1cd'
p3447
(lp3448
g2620
asS'75cbf267b0ae0570268f2b2be'
p3449
(lp3450
g525
asS'486677590c9aeaef2d92fa065'
p3451
(lp3452
g453
asS'6ab50f2910ae8766e65c6c6ae'
p3453
(lp3454
g819
asS'57d29d24d1b76ec5cf0888a61'
p3455
(lp3456
g776
ag347
asS'd18d0ccd07f451fedc4a93837'
p3457
(lp3458
g164
asS'8ef4433889f84147127967eed'
p3459
(lp3460
g1088
asS'9e6ac3b9603f7529d76498908'
p3461
(lp3462
g781
asS'9981ecc94b9eb4de793247a27'
p3463
(lp3464
g913
asS'f124328d1d4d95281f2a1e736'
p3465
(lp3466
g794
asS'd29c8161eb054de3d93971056'
p3467
(lp3468
g530
asS'8d109a5e3a80665f2ddc18d02'
p3469
(lp3470
g1109
asS'2ce695697d0fe499a0f0aafba'
p3471
(lp3472
g3066
asS'98f17e84eea4d6dfe51587a80'
p3473
(lp3474
g604
asS'a08b0a1f77aea651a045c17f6'
p3475
(lp3476
g776
asS'69bf69574c24a21907daa1456'
p3477
(lp3478
g660
asS'c97120d5b3f7801964981bbcc'
p3479
(lp3480
g490
asS'063669e3ea0f19c005506fc03'
p3481
(lp3482
g359
asS'8b2518bc1eea4b57fcc2c5fa4'
p3483
(lp3484
g97
asS'3868b41b32328a32fb4971b1a'
p3485
(lp3486
g3143
asS'ae990b3bdd61bec06bb725914'
p3487
(lp3488
g1266
asS'3ebe4f7250956091c8c7e13b8'
p3489
(lp3490
g1085
asS'4c78e15c69c0592deb18b46bb'
p3491
(lp3492
g448
asS'27c4bba40b1d9542725f7a613'
p3493
(lp3494
g15
asS'af8e173c2c1a24f39da178948'
p3495
(lp3496
g107
asS'c77d78e6944ae8e65f333daa5'
p3497
(lp3498
g794
ag609
asS'a3c4f89bbe6bfdcf7a478854b'
p3499
(lp3500
g50
asS'f9d89ba35416824b2702dbc13'
p3501
(lp3502
g144
asS'0ac22c233f810e8e666c518d6'
p3503
(lp3504
g2486
asS'b0a72460bb6ef4e95cd8a171d'
p3505
(lp3506
g1094
asS'09816656c09876902ea6148e1'
p3507
(lp3508
g965
asS'94d06077459452efa2dea5de9'
p3509
(lp3510
g575
asS'605548ff35760d2ba727d3750'
p3511
(lp3512
g408
asS'07364c0fba16c185f24c551bf'
p3513
(lp3514
g848
asS'c2fccc00029a572d948301c1e'
p3515
(lp3516
g1001
asS'4d0e1b24e1989f322eba3998e'
p3517
(lp3518
g368
asS'cc89b12147d5d7a1cc0cee1d3'
p3519
(lp3520
g981
ag1001
ag468
ag391
ag1229
ag30
ag1375
asS'8b0e08775dfcafdedaef918ad'
p3521
(lp3522
g189
asS'a51301214022f2e83e62c9242'
p3523
(lp3524
g719
asS'90b8e9e71197a92b23e33a817'
p3525
(lp3526
g1364
asS'3ed5be1523788a4fcc36ee7c7'
p3527
(lp3528
g3226
asS'ede6c33832d4ff47288a6ab9d'
p3529
(lp3530
g391
asS'720a6a2a93415b5375572bac3'
p3531
(lp3532
g649
asS'14d29c57eceb71215fad27a16'
p3533
(lp3534
g3446
asS'b46645b77bd6c22443c71bc6c'
p3535
(lp3536
g453
asS'04a429cda8c02cdc75bfef9cf'
p3537
(lp3538
g436
asS'607d12fceff6e1c1a8d1fa23d'
p3539
(lp3540
g3446
asS'2019ff168b99cd7899cee65be'
p3541
(lp3542
g380
asS'e94c54fd938fbd801df831f9e'
p3543
(lp3544
g1404
asS'2f91a0b46e6465dafa045f9e7'
p3545
(lp3546
g2398
asS'ee1960edb7f5c70d50bb2e8dd'
p3547
(lp3548
g609
ag418
asS'ed398bd2e5fc5b03bb77a79ba'
p3549
(lp3550
g1795
asS'c624b47df1e10d5ffb2b27529'
p3551
(lp3552
g535
asS'e33b86929b58bf8d1b0a64604'
p3553
(lp3554
g266
asS'a98c3abd1a413fccd45cde7a7'
p3555
(lp3556
g431
asS'42be040d9db8c1f9a6671eaa9'
p3557
(lp3558
g298
asS'4e7ec8330030fe927de9cab9a'
p3559
(lp3560
g1465
asS'08d80daf3e6325f3923325a8e'
p3561
(lp3562
g676
asS'190cb15349fa41071ec32dc43'
p3563
(lp3564
g1174
asS'8ed6c7ab933207bea92d9b155'
p3565
(lp3566
g82
asS'e93b64ebf2e3727023ec3ac0b'
p3567
(lp3568
g396
asS'eec603c30a07077285ae81705'
p3569
(lp3570
g77
asS'8d209dbb641f3af6cf94f2b3d'
p3571
(lp3572
g1027
ag97
asS'de4e64e84c6337198f06bddd2'
p3573
(lp3574
g117
asS'1fc02f419395462d0edaf34b2'
p3575
(lp3576
g3299
asS'c3bea140daf999ddfcf8c6303'
p3577
(lp3578
g1248
asS'125fbb64a3ce3e5e8fc10941c'
p3579
(lp3580
g692
ag490
ag1224
ag169
ag2228
ag40
ag1011
ag1541
asS'c661f5431f6b4ae9dd7e6dd9d'
p3581
(lp3582
g946
asS'd97c9c173d1dbe1badeae2392'
p3583
(lp3584
g829
ag50
ag6
(g10
S'\xfe\x06\x00\x00\x00\x00\x00\x00'
p3585
tp3586
Rp3587
ag6
(g10
S"'\x07\x00\x00\x00\x00\x00\x00"
p3588
tp3589
Rp3590
asS'fb03be1da06f10ffce8bd934e'
p3591
(lp3592
g762
asS'8ff1b5c98176f658bf1b5fcdb'
p3593
(lp3594
g754
asS'726dcb8d5612bc23b93d48727'
p3595
(lp3596
g1321
asS'a4bced53a011d4ba3d1ffbdf2'
p3597
(lp3598
g609
asS'830037ccb64409da8dd2236fc'
p3599
(lp3600
g1523
asS'648993cae98ccffbc47592e40'
p3601
(lp3602
g981
asS'1e424b32ac6352b724ee3f3bd'
p3603
(lp3604
g1022
asS'8849fae8fba1492d015cef3f5'
p3605
(lp3606
g1975
asS'3ade2df4a74d152c9e1daa477'
p3607
(lp3608
g45
asS'487effece3c53a4149cedf1a4'
p3609
(lp3610
g1714
ag697
ag6
(g10
S'R\x07\x00\x00\x00\x00\x00\x00'
p3611
tp3612
Rp3613
asS'd478908f5fc171d32bb455ad0'
p3614
(lp3615
g575
asS'04957c6d13236be5981d981f6'
p3616
(lp3617
g1911
asS'c78cb51fd5565375b6785d73f'
p3618
(lp3619
g1006
asS'f40e10d0ba007106e9db37388'
p3620
(lp3621
g1667
asS'1470ad5461ea342d66e86f67f'
p3622
(lp3623
g2049
asS'2e8e13894d67f82d139bc8f5d'
p3624
(lp3625
g154
asS'c5cd662da11618af069c1abee'
p3626
(lp3627
g1158
asS'a56c0e123f7bbe5166bd9b2b3'
p3628
(lp3629
g1063
asS'd0072ee0872507a268a61c8f0'
p3630
(lp3631
g1045
asS'90043ca60a998f2362e4e33d8'
p3632
(lp3633
g82
asS'66595e5fa7342341d59a8a285'
p3634
(lp3635
g310
asS'4d22d5006769ed233caa00215'
p3636
(lp3637
g1243
asS'4e25eaee704fb6ad25ded0859'
p3638
(lp3639
g139
asS'024c5d1c3240f22b0aa8f5429'
p3640
(lp3641
g352
asS'17b5f1a61f53a49f98169afd4'
p3642
(lp3643
g557
asS'66ab23ee56305b651b67adb59'
p3644
(lp3645
g485
asS'b43053224bbf193b4bc161eb0'
p3646
(lp3647
g562
asS'329dce3054f266f69e9cb16c9'
p3648
(lp3649
g112
asS'8222c2415ddcc4a99b48a32f4'
p3650
(lp3651
g468
asS'c4ceb1659521af4b6965f7693'
p3652
(lp3653
g667
asS'88f081948f6c34a3505b44a50'
p3654
(lp3655
g599
asS'aeabac556986555f3676ea577'
p3656
(lp3657
g1364
asS'45c93aa174e3f65d95ce0b0e7'
p3658
(lp3659
g144
asS'14c5e4d22360298023b2a2766'
p3660
(lp3661
g1135
asS'66853df7ad4afd17a43bd154c'
p3662
(lp3663
g3299
asS'd55dbd60ecfbf5b41fda2f8d0'
p3664
(lp3665
g20
asS'bd171c88ede11c3792950ca9c'
p3666
(lp3667
g332
asS'add7b91ba977b0e0b4fcb4fda'
p3668
(lp3669
g112
asS'd503a50a85a54267cfcfb187d'
p3670
(lp3671
g365
asS'654431f066bd03da55255572b'
p3672
(lp3673
g1321
asS'5aecc4d40c404318952c87945'
p3674
(lp3675
g154
asS'2e99420655412d62cb2fbe0e2'
p3676
(lp3677
g692
asS'9254292131bfe4c50f8a94c9c'
p3678
(lp3679
g1140
asS'c7224418db61c3053d5cf33c5'
p3680
(lp3681
g154
asS'43f49e87437db139577a19994'
p3682
(lp3683
g1357
asS'5f9f9aa59568566345272f9c2'
p3684
(lp3685
g20
asS'389e62f55e0865964d6115754'
p3686
(lp3687
g2620
asS'307e823046a3342d83a695554'
p3688
(lp3689
g1243
asS'1e060373f3055001eca299286'
p3690
(lp3691
g649
asS'630c53a057261711d2ddfdcf8'
p3692
(lp3693
g575
asS'2a72a6abdabe76ee5377d1700'
p3694
(lp3695
g1121
asS'49c754fb241f54fe8a7b3b04b'
p3696
(lp3697
g256
asS'525db586d95690399b83030e9'
p3698
(lp3699
g2315
asS'59a70012b992b712c0342ca73'
p3700
(lp3701
g362
asS'706279d055f18990d5d085b9e'
p3702
(lp3703
g362
asS'0db9de5e0a13a0e792cfc776d'
p3704
(lp3705
g490
asS'd2404cdb55cb323772f0bbef3'
p3706
(lp3707
g352
asS'b6bcb37fc30ddf08afab8e850'
p3708
(lp3709
g2352
asS'2b650fb02af173b36a8b97e0f'
p3710
(lp3711
g513
asS'33f3f297a13aa10626665de04'
p3712
(lp3713
g117
asS'f2c05906844ca30b4d430c5af'
p3714
(lp3715
g1045
asS'aa1e9f5679ea534ab5c90c024'
p3716
(lp3717
g2213
asS'f5fb217c06bb40e3d7a865088'
p3718
(lp3719
g853
asS'94b6de8835efc2897d721505f'
p3720
(lp3721
g6
(g10
S'\x11\x07\x00\x00\x00\x00\x00\x00'
p3722
tp3723
Rp3724
asS'f1a1a998c6126382e9009d2cd'
p3725
(lp3726
g1814
asS'3f0b70c8595fda459b3249736'
p3727
(lp3728
g926
asS'355e7e2c609e3143eb14a4382'
p3729
(lp3730
g562
asS'2fb7510df740770efc93a47f1'
p3731
(lp3732
g933
asS'3853b7c8a455f2b9f33d8e03a'
p3733
(lp3734
g229
asS'9b83517deb655e6c923552005'
p3735
(lp3736
g2915
asS'8f9032ece835930f499309aac'
p3737
(lp3738
g660
asS'9f57c140f7d7ff0c781641b1e'
p3739
(lp3740
g1318
asS'fb3701b86132159a4e415f67a'
p3741
(lp3742
g194
asS'd35f9d5b088cab715f312d555'
p3743
(lp3744
g1423
asS'5af6a60912e5e9a0be926b948'
p3745
(lp3746
g423
asS'7309e815fcba75ba3048248ea'
p3747
(lp3748
g1357
asS'ad0d420bf8c15862bc6d9780a'
p3749
(lp3750
g3210
asS'89bc9f8a8e2dfcfe330dcd701'
p3751
(lp3752
g3446
asS'42f4c1797bc9e47ec3ffab724'
p3753
(lp3754
g1261
asS'589a8e55799abcb0efce0f42f'
p3755
(lp3756
g829
asS'bf33092f6d077dfde2a4c6e09'
p3757
(lp3758
g625
asS'11ba32fe2653deed0e42c8fd3'
p3759
(lp3760
g194
asS'55a4bca8a40330115d6198c80'
p3761
(lp3762
g139
asS'9fadcb787881a9ee1029442fb'
p3763
(lp3764
g480
ag2590
asS'192b34bfd273f6d7843981dc5'
p3765
(lp3766
g630
asS'1e4b3944b8564dbffc8e0a31e'
p3767
(lp3768
g391
asS'6458cd070851597bc65f90bed'
p3769
(lp3770
g1045
asS'950096aa0f108c171386e9a62'
p3771
(lp3772
g2228
asS'eff665700286d696d2943f30c'
p3773
(lp3774
g134
asS'87922a4e91ee442af13dc2e2e'
p3775
(lp3776
g570
asS'7ed48df325766dc4dcc247733'
p3777
(lp3778
g1001
asS'b076f260a0c8da8080bbb695c'
p3779
(lp3780
g441
asS'0e6612bf6fdb7cbe90489321d'
p3781
(lp3782
g6
(g10
S'\x1a\x06\x00\x00\x00\x00\x00\x00'
p3783
tp3784
Rp3785
asS'423880431122c70b7953f30fb'
p3786
(lp3787
g1011
asS'33e6f5bae0802f3e8fd3f8dcc'
p3788
(lp3789
g359
asS'4a4747f9787ca00f6926c1ac4'
p3790
(lp3791
g159
asS'1acdb28a37c3fd43b08270422'
p3792
(lp3793
g599
asS'e3cbdeb710006ee297b986811'
p3794
(lp3795
g2662
asS'c0dc965bbf608f7dc449366b9'
p3796
(lp3797
g276
asS'0e0cb337caa50272862bcf79e'
p3798
(lp3799
g214
asS'7692700636655bf3011f101a6'
p3800
(lp3801
g1297
asS'd3963f21323746e9ee4b2ab1b'
p3802
(lp3803
g310
asS'224e292da02832f3729f768bf'
p3804
(lp3805
g431
asS'cea7163c1fd864be600a67754'
p3806
(lp3807
g1580
asS'18d08765a0f913984d993324f'
p3808
(lp3809
g1091
asS'b83e2a66e611bde2873fa859c'
p3810
(lp3811
g869
asS'9001d8302acd8bb46f7502aeb'
p3812
(lp3813
g1205
asS'0124c3dffa49c0bd70daba7fa'
p3814
(lp3815
g149
asS'd1560c6f83ac395ba7f15a0bb'
p3816
(lp3817
g20
asS'a53430811dd34922ad448de45'
p3818
(lp3819
g2030
ag804
ag1649
asS'5968cea7d8c93b7f23899d53f'
p3820
(lp3821
g1027
asS'26a180fc69dc417d8054d59cb'
p3822
(lp3823
g974
asS'fdcb3931dfb2c8e2e9204fc85'
p3824
(lp3825
g804
asS'8e913b1c0f43d67d33d1975b9'
p3826
(lp3827
g45
asS'e0bd79f9286351ba63ae40ca1'
p3828
(lp3829
g829
asS'fcd631d4300429154f6e14222'
p3830
(lp3831
g184
asS'9e736e5fa17999b2f024ca15b'
p3832
(lp3833
g630
asS'2166b29871142eea57bf386b4'
p3834
(lp3835
g1492
asS'0313cd6af1d5ebb14f2f55dce'
p3836
(lp3837
g6
(g10
S'o\x07\x00\x00\x00\x00\x00\x00'
p3838
tp3839
Rp3840
asS'9df0862c96830002d5263e76f'
p3841
(lp3842
g50
asS'002825959b8d8583bba1aaaba'
p3843
(lp3844
g463
asS'ffb4966c8c1f84e179c2d4789'
p3845
(lp3846
g776
asS'e21b33152114c30881a7d3c3f'
p3847
(lp3848
g3226
asS'f920cf568f3667d0b38557791'
p3849
(lp3850
g1612
asS'47d61e55b7ad91379d5dcbe84'
p3851
(lp3852
g1121
asS'bc09efd4b6d40b740379c31bb'
p3853
(lp3854
g403
asS'653b499944a564a928cf701cf'
p3855
(lp3856
g1248
asS'616ce3d044bcd48bd9bff4672'
p3857
(lp3858
g298
asS'4d704e9f0927c4981a516f695'
p3859
(lp3860
g1662
asS'80941da7922ba1b7f4d360123'
p3861
(lp3862
g986
asS'51b152c3d00f2c28d6da390cd'
p3863
(lp3864
g458
asS'104d03a0340a69417c3e3525f'
p3865
(lp3866
g1404
asS'66ed5bd766acddb43d13baeea'
p3867
(lp3868
g310
asS'd9b27d8304416763d9d6a3127'
p3869
(lp3870
g789
asS'0e066a4c4f1d1191bc138c566'
p3871
(lp3872
g20
asS'7f70de13761759656d0c5ea32'
p3873
(lp3874
g1040
asS'9b90dbea57c10fd067fcdb771'
p3875
(lp3876
g179
asS'4e6c8546901b16791ca298584'
p3877
(lp3878
g881
asS'a71a4f6b41d6515508566a993'
p3879
(lp3880
g890
asS'860459790c1d6e32a4e2f7b17'
p3881
(lp3882
g468
asS'd604822ab89620dce2e347844'
p3883
(lp3884
g219
ag6
(g10
S'\xc1\x06\x00\x00\x00\x00\x00\x00'
p3885
tp3886
Rp3887
asS'7fc94b1d578ddbad02b91b796'
p3888
(lp3889
g2030
asS'5e3d21a42b403b5336d2aeb1e'
p3890
(lp3891
g570
asS'3d406f327937ea2eb4ed06ff6'
p3892
(lp3893
g441
asS'4b8a3c0ec947c014ed200ae93'
p3894
(lp3895
g403
asS'1a19c053811180e10714b12c7'
p3896
(lp3897
g408
asS'ca73fbf8020c31ce9802bad59'
p3898
(lp3899
g327
ag685
ag2352
ag709
ag1989
ag6
(g10
S'N\x07\x00\x00\x00\x00\x00\x00'
p3900
tp3901
Rp3902
asS'2a8f9805e9edb4d2ac3fdae32'
p3903
(lp3904
g374
asS'dcd4d59a8a2aa7af1c94c9da3'
p3905
(lp3906
g853
asS'ea97fce6ba5b3421d500cb78b'
p3907
(lp3908
g371
asS'956d6a180dc24bfe0a4ad02de'
p3909
(lp3910
g377
asS'40748b978d98cf3dc9df38ce0'
p3911
(lp3912
g1432
asS'3b4cbd36ae2c6f894f93359dd'
p3913
(lp3914
g204
asS'aed083eab2b3995252c43154a'
p3915
(lp3916
g199
asS'1219a756fb73a849049c9159e'
p3917
(lp3918
g1725
asS'beee212ddb64d3c8177e250f1'
p3919
(lp3920
g1321
asS'3722f32ed44c3231d04bd9209'
p3921
(lp3922
g667
asS'ebd7ea25d7aff95ffe0c0f745'
p3923
(lp3924
g926
asS'ec439e41e0c4e01889b51c780'
p3925
(lp3926
g463
asS'd98a2c26eb35747391833abac'
p3927
(lp3928
g639
asS'6099524779d114fe150af3686'
p3929
(lp3930
g298
asS'b1c1f57c7f440be5e581a5d2f'
p3931
(lp3932
g1725
asS'97fc3ea748a59b9990540459c'
p3933
(lp3934
g1158
asS'563df252d7c0fce537e3ca739'
p3935
(lp3936
g1346
asS'59658a92f6129a471e775dd43'
p3937
(lp3938
g60
ag129
asS'd065201ab8eedc07bd705fec9'
p3939
(lp3940
g1439
asS'4643ea83518a5f04230becc71'
p3941
(lp3942
g1243
asS'd8c01e77f9d52bf7ba565b3af'
p3943
(lp3944
g408
asS'f4ca6d8b6958e0a18d32b69cb'
p3945
(lp3946
g1318
asS'b7446d6d2bb3eb1e81a8cdcc7'
p3947
(lp3948
g513
asS'c3de0085469cf774993371db2'
p3949
(lp3950
g189
asS'bbbb524c6ecf5832ec490bddb'
p3951
(lp3952
g853
asS'21125cea499f9b44f80066089'
p3953
(lp3954
g1229
asS'31e3f7f0bc4b9edc750e026f0'
p3955
(lp3956
g359
asS'2f1726b37edb3d01652550797'
p3957
(lp3958
g776
asS'5627ad7a7e63cf5d735a6426a'
p3959
(lp3960
g1248
asS'74baf54e925e406ee5ab6858b'
p3961
(lp3962
g448
asS'f7767c767e788fced40a3fb21'
p3963
(lp3964
g261
asS'caea76853b8efc7e54654f24d'
p3965
(lp3966
g293
asS'524af1d23af9c211da1a4515b'
p3967
(lp3968
g428
ag1364
asS'e92748e84289c81308469637e'
p3969
(lp3970
g347
asS'571208b1a459e9e2398f95d83'
p3971
(lp3972
g1318
asS'5c8e049d3eedeee6f1624c6cf'
p3973
(lp3974
g2228
asS'9802964606f400f76abbbe838'
p3975
(lp3976
g762
asS'53377489eefe485b323360a8b'
p3977
(lp3978
g604
asS'f1803f670d11b65b9071b1abf'
p3979
(lp3980
g107
asS'7e1d76881a74827c0dd20fff3'
p3981
(lp3982
g956
asS'aaf19bab736d9d6c61caea12e'
p3983
(lp3984
g762
asS'a92f2db9b0c5c2d34ad4f5218'
p3985
(lp3986
g540
asS'5ea5e130f553f864b11765c85'
p3987
(lp3988
g2398
asS'b1bdd85b06d87d61e6714729f'
p3989
(lp3990
g1744
asS'0376f92509c956b6d95a16cf4'
p3991
(lp3992
g1140
asS'9b35f697e47b471af75a12372'
p3993
(lp3994
g1324
asS'5c228cba85c185b2d6d5ccc2f'
p3995
(lp3996
g506
asS'7634f1539c43078017c3383ff'
p3997
(lp3998
g436
asS'b11b34697c38e9ec5966bd85e'
p3999
(lp4000
g869
asS'db5206a9c3c62b86b4a84e776'
p4001
(lp4002
g1068
asS'7f19c78e0b3571ed8ffb16d01'
p4003
(lp4004
g1205
asS'48453668f7484f3aa7490fafc'
p4005
(lp4006
g1027
asS'0174969ee451f22d51372e2aa'
p4007
(lp4008
g352
asS'634b3cbe3b4921100e0a247af'
p4009
(lp4010
g1266
asS'70e6997f644dcb35acfb8bbb3'
p4011
(lp4012
g1001
asS'55f6f3a94429456d444f013bd'
p4013
(lp4014
g144
asS'ad0b3a36a91ae9e6545e25841'
p4015
(lp4016
g305
asS'6f5b79f9a5c5a23907ca72207'
p4017
(lp4018
g322
asS'5348b3e60b296308e10858824'
p4019
(lp4020
g189
asS'e73e2d4caaa990fce4e4a259b'
p4021
(lp4022
g2118
asS'd2cd1084b771e184c9600c1a4'
p4023
(lp4024
g1006
asS'20b103e3ae29449f5d5c7ba1e'
p4025
(lp4026
g2797
asS'e8762ad0bf782d39ff9701d77'
p4027
(lp4028
g956
ag1707
ag60
ag1140
ag129
ag322
asS'3af329cfc565d670ae29a6c8d'
p4029
(lp4030
g2315
asS'3793c2087d3806ef058f6042a'
p4031
(lp4032
g1229
asS'0733f53e7d3c2dd596642813b'
p4033
(lp4034
g781
asS'800a9658bb27919323f0ac610'
p4035
(lp4036
g77
asS'9cd356c26d59d92479ad71db6'
p4037
(lp4038
g1085
asS'd419d306fea1b46c6f5d3d0a6'
p4039
(lp4040
g599
asS'acad5b0c8f99976bfff641aa0'
p4041
(lp4042
g1315
asS'bd6f7147de20f32fe2e5ceb7f'
p4043
(lp4044
g1690
asS'a89bbc9331b12388c4e604dbe'
p4045
(lp4046
g604
asS'8096fdb9700a7aa75cdebc229'
p4047
(lp4048
g589
asS'f3589edccb4a2f4c90bb3bd34'
p4049
(lp4050
g714
asS'17e8fc44c6ebb6c3f709f0d83'
p4051
(lp4052
g485
asS'3d5a9ae78be82c1b379616daa'
p4053
(lp4054
g2954
asS'43c29b284f61883bdc8763337'
p4055
(lp4056
g913
asS'c5645ed4a217947d2c911bc2f'
p4057
(lp4058
g391
asS'cf78732e8455fb0d197ada1ad'
p4059
(lp4060
g6
(g10
S'\x9c\x06\x00\x00\x00\x00\x00\x00'
p4061
tp4062
Rp4063
asS'c4712465c129e64fc0dbb0d9e'
p4064
(lp4065
g1315
asS'9ca98cc9a0677e623761859fe'
p4066
(lp4067
g1744
asS'319d1bd0b4953a5e5dcf693ed'
p4068
(lp4069
g1390
asS'ad311dd714a20a8138697b567'
p4070
(lp4071
g1900
asS'b988c1af51c143b7e40b159ed'
p4072
(lp4073
g1667
asS'572031370a2a3eece78517a59'
p4074
(lp4075
g570
asS'2233c97239f68969ba94ba386'
p4076
(lp4077
g377
asS'5a937aac73f54f83dc7fab965'
p4078
(lp4079
g951
asS'7c5fd4258bca630946edf5e39'
p4080
(lp4081
g342
asS'7da8561845697227c8be67023'
p4082
(lp4083
g418
asS'31c81c8a4b0e6e03849fdd827'
p4084
(lp4085
g458
asS'54e41eb898b81dcc1f898b27f'
p4086
(lp4087
g1880
asS'83db3aac0bd04610c39d5a01b'
p4088
(lp4089
g6
(g10
S'\x95\x05\x00\x00\x00\x00\x00\x00'
p4090
tp4091
Rp4092
asS'4c89e6e85535e1fdb661dc2f9'
p4093
(lp4094
g436
ag6
(g10
S'\xa4\x06\x00\x00\x00\x00\x00\x00'
p4095
tp4096
Rp4097
asS'bc257c90cbea265f879a43fe0'
p4098
(lp4099
g368
asS'527a9270de53dc10126220d11'
p4100
(lp4101
g660
asS'bdf5a82cb1b6a20dc6e71490a'
p4102
(lp4103
g1580
ag4092
ag6
(g10
S'R\x06\x00\x00\x00\x00\x00\x00'
p4104
tp4105
Rp4106
asS'0700b89360d3622b29eda99a6'
p4107
(lp4108
g599
asS'5b644e7bbbb5b23d34845008f'
p4109
(lp4110
g1460
asS'0d43806c3eaade4b3bb0fb091'
p4111
(lp4112
g2797
asS'0e0078a10a4c2446d158f6184'
p4113
(lp4114
g67
asS'cebe7e5c11fde3c46ad3fe48b'
p4115
(lp4116
g575
asS'9575380e4387afe08662355f1'
p4117
(lp4118
g2030
asS'6f2d4054c51c1357ebd48fb1a'
p4119
(lp4120
g3165
asS'72077920a234d96c72c79d196'
p4121
(lp4122
g3226
asS'19b9849cdbf1144749133fb1c'
p4123
(lp4124
g209
asS'fba576265dd74ceae9ab0eaf0'
p4125
(lp4126
g77
asS'4c62b72af9f5bf281189f537c'
p4127
(lp4128
g1290
asS'f3bf95d707be560af2877d4c9'
p4129
(lp4130
g347
asS'21d408b192c9e3122b347a822'
p4131
(lp4132
g535
asS'9d417a7dbca0cc4de9bc08c2e'
p4133
(lp4134
g2352
asS'48dc47467b5c67869ffac6d21'
p4135
(lp4136
g1027
asS'3dcdfdd34f7d6dcda56c9cf2b'
p4137
(lp4138
g1283
asS'e844d5a7e7607f9f4be050e69'
p4139
(lp4140
g900
asS'e6514a7f52230646998505abf'
p4141
(lp4142
g876
asS'c147a23bd61a7857af3d18e80'
p4143
(lp4144
g288
asS'2364324be5a9fef44d11a4e68'
p4145
(lp4146
g1786
asS'5e55b6957ddf8727dc7342eba'
p4147
(lp4148
g862
asS'496ba5a661fdb3f20df0e7d0a'
p4149
(lp4150
g418
asS'10c2765e12f5b0f88a116aee0'
p4151
(lp4152
g1911
asS'9a6ae827954d18092be13cba1'
p4153
(lp4154
g2213
asS'61098e334a9621787c3533a87'
p4155
(lp4156
g6
(g10
S'\xa3\x06\x00\x00\x00\x00\x00\x00'
p4157
tp4158
Rp4159
asS'c03fcd1f2ea67203ccd82832c'
p4160
(lp4161
g789
asS'c8eda36f87ca56659556f7fe7'
p4162
(lp4163
g2066
asS'fa4c5b246d7bba2fb7ce0dea4'
p4164
(lp4165
g2571
asS'a4c96a8b7d80ee9cfa4f70e0f'
p4166
(lp4167
g3243
asS'fa10faff1bc3fe2661db8425d'
p4168
(lp4169
g1465
asS'6f4eae4a3bf594bacf85dce3c'
p4170
(lp4171
g1781
asS'8f730961a8f63f12ab279b804'
p4172
(lp4173
g413
asS'2a8b17aff5144e3ac36681ec1'
p4174
(lp4175
g305
asS'64941b89a763691b726083716'
p4176
(lp4177
g1492
asS'9ba0a32ad18d4a84a6cb1998c'
p4178
(lp4179
g1006
asS'3db3460a79a743d2f7bf45532'
p4180
(lp4181
g129
asS'fd9134bcbfd49f03642b2d46f'
p4182
(lp4183
g506
asS'c859d2528efc7fff26a30ae80'
p4184
(lp4185
g1714
asS'91e6cb408fedc26295b7cfa5e'
p4186
(lp4187
g714
asS'edbd3b36ec2ceed30ccb90117'
p4188
(lp4189
g362
asS'17053d0357ff9dff7dcc9b4f6'
p4190
(lp4191
g719
asS'1c61909414a26b6ff70451359'
p4192
(lp4193
g327
asS'7e5cb57bc7af7dd64e39c9cf9'
p4194
(lp4195
g1795
ag1982
asS'0ca7b8ed255146a6908e2a1cf'
p4196
(lp4197
g174
asS'5d21ff1809a7ded77562e3505'
p4198
(lp4199
g876
asS'ac6f7038542d67a4a828ab6c4'
p4200
(lp4201
g644
asS'6c12f6a9a5ebbc7c7a825a476'
p4202
(lp4203
g1321
asS'49560d2475712827fa6575997'
p4204
(lp4205
g310
asS'c36bf148a08fc4d50d3ab82d0'
p4206
(lp4207
g1629
asS'0366ed809202f21d24a5f2937'
p4208
(lp4209
g1091
asS'c5a86fd286cb0d99dfe2dae7e'
p4210
(lp4211
g1045
asS'adfe0eb61ac51324b21309ffc'
p4212
(lp4213
g418
ag1357
asS'd13bcb32dfe99dd275c1ffba0'
p4214
(lp4215
g184
asS'9148073b4548f963f3d839b32'
p4216
(lp4217
g2590
asS'05042118ff713433b07296118'
p4218
(lp4219
g654
asS'9f53bbf40fac6ad710883389e'
p4220
(lp4221
g305
asS'3845c327fb08e1e87550c038a'
p4222
(lp4223
g169
asS'1ad4c249d7487ed7d2ac49a27'
p4224
(lp4225
g6
(g10
S'\xf0\x05\x00\x00\x00\x00\x00\x00'
p4226
tp4227
Rp4228
asS'a8b7a92c63a04d6cb8ec90fba'
p4229
(lp4230
g1674
asS'81410832bb22e42fb22eea62f'
p4231
(lp4232
g72
asS'a45f4bf4a0ae517fa12fd5582'
p4233
(lp4234
g1149
asS'e2a3ba840c305ca5ebd19758e'
p4235
(lp4236
g1163
asS'3fabb0836ada93ca17cdeb499'
p4237
(lp4238
g1327
asS'ab76eeed11ddac70098d03e92'
p4239
(lp4240
g1266
asS'19df166fd287508d410336939'
p4241
(lp4242
g1229
asS'975c2e37f2623385fe4dd588a'
p4243
(lp4244
g1109
asS'8d3445b0b69d92a996304f365'
p4245
(lp4246
g239
asS'49fc6a8b92f1173e70828953d'
p4247
(lp4248
g380
asS'59ddad29faeb6812c96b871d5'
p4249
(lp4250
g1174
asS'e50ca16441e70ce97d819fc67'
p4251
(lp4252
g2118
asS'ac21fedb6f19f952c053b156c'
p4253
(lp4254
g630
asS'7485b2da35c37f6a9f16b236f'
p4255
(lp4256
g1085
asS'265d3c4d8ca8ea2d7c9451fab'
p4257
(lp4258
g239
asS'1f4bffe1b79f67c90bee7c00c'
p4259
(lp4260
g1063
asS'c07a84b9449b1e28d7884bc5d'
p4261
(lp4262
g40
asS'1b424749712ec019fb11f2aad'
p4263
(lp4264
g4228
asS'7ac193120641df4be47288472'
p4265
(lp4266
g1674
asS'd0996e111cb9010ea03ff9c88'
p4267
(lp4268
g365
asS'8b5bd6eb0772a1fd49f97646a'
p4269
(lp4270
g660
asS'3fa024fc91879b14997523891'
p4271
(lp4272
g525
asS'2a9e95d222984aba60fba2767'
p4273
(lp4274
g6
(g10
S'\xf8\x06\x00\x00\x00\x00\x00\x00'
p4275
tp4276
Rp4277
asS'a12c2ad6f343d60686197870a'
p4278
(lp4279
g557
asS'553bf737797a922c512a990df'
p4280
(lp4281
g448
asS'cbdac31b15db4bb3a2b62be85'
p4282
(lp4283
g72
asS'bb263641d78211f18b349c26a'
p4284
(lp4285
g1662
asS'e342bda4700b1ae96970e6562'
p4286
(lp4287
g829
asS'b2fe9e5cc1b096f5974c93f90'
p4288
(lp4289
g1707
asS'a000d2dd21c13b7a2773c1b0f'
p4290
(lp4291
g685
asS'0370e43ec0668dc9b433239fb'
p4292
(lp4293
g1045
asS'6bf0fd5d16c5e7d09c3aaab3f'
p4294
(lp4295
g1040
asS'c5abae3762908b004d41cff26'
p4296
(lp4297
g2640
asS'53604ed007a97906497f8ba8f'
p4298
(lp4299
g234
asS'b0cd09883b847f7d63cd227eb'
p4300
(lp4301
g1930
asS'520fbc4980f790ae3515355d7'
p4302
(lp4303
g1690
ag540
ag724
ag1605
ag283
ag2810
asS'acee4a10855962812d78f6a8e'
p4304
(lp4305
g1126
asS'b6799b4a12a52e3ca2ce7a19c'
p4306
(lp4307
g702
asS'168ce088406eefb495fa8c74e'
p4308
(lp4309
g1853
asS'c9edd18aa0dec69fc1025f070'
p4310
(lp4311
g1253
asS'fe282e5804e40a5f57f021518'
p4312
(lp4313
g853
asS'bf7547cc171426c50e1825ba8'
p4314
(lp4315
g365
asS'abc87ef0078f3cc430c719c2e'
p4316
(lp4317
g139
asS'a5954dfae96107fa95f40eb77'
p4318
(lp4319
g1088
asS'f1cb89fba4c8bc1d86f664049'
p4320
(lp4321
g129
asS'04566f2e415cee404cb4dc215'
p4322
(lp4323
g159
asS'22bdd3d0c34ac690140b13d96'
p4324
(lp4325
g540
asS'46010012d068623728185f2f9'
p4326
(lp4327
g946
asS'11d425f74add57cf0f36cce42'
p4328
(lp4329
g540
asS'0a543594e03a38a60d38a513a'
p4330
(lp4331
g676
asS'dbd1c849a6672db4cdedff7c6'
p4332
(lp4333
g1612
asS'8d34dee6220d6372cb48d7f6c'
p4334
(lp4335
g144
asS'8b0d75d5470d52df149f6f21a'
p4336
(lp4337
g117
asS'c90b1f208b0f08de31972b0b7'
p4338
(lp4339
g413
asS'600d4fe2a59b53b455acef7b6'
p4340
(lp4341
g82
asS'2e873cafff06991107d8dcbf2'
p4342
(lp4343
g630
asS'9f0000c4f09cb2e0ff27358b2'
p4344
(lp4345
g134
asS'd80d0ff53afdf61557b379c82'
p4346
(lp4347
g1297
ag2242
asS'ffce5fb59d2a94c6d0a15442c'
p4348
(lp4349
g224
asS'8c7f74d5f3061248842b097c6'
p4350
(lp4351
g1140
asS'093f3d974899d55b24d75e1ae'
p4352
(lp4353
g441
asS'2fbf24d3618dd114fccff0c7d'
p4354
(lp4355
g781
asS'11c53ca64463c64ddbb517c08'
p4356
(lp4357
g2352
asS'fbd49e0de46b2419c903e4b34'
p4358
(lp4359
g1158
asS'9530a9c23c17fce4a596ef0d7'
p4360
(lp4361
g256
asS'fa8b801362add1a63aed75bff'
p4362
(lp4363
g506
asS'808a1a16d254e28dea141a07c'
p4364
(lp4365
g530
asS'8e71d3c816042feb2f90757db'
p4366
(lp4367
g1814
asS'06c5d708eab2b963b874f4105'
p4368
(lp4369
g789
asS'7155918f0130a59824bbbda8a'
p4370
(lp4371
g1662
asS'a926f359efb2614e377555383'
p4372
(lp4373
g1248
asS'bab27d0bd5eae4e0311dc59fc'
p4374
(lp4375
g609
asS'af1bbff4b0a77d931a6fbd7dd'
p4376
(lp4377
g804
asS'45a744aa0ed06cbbf187f26a8'
p4378
(lp4379
g365
asS'ea8d91ce7fbc76f024c116e64'
p4380
(lp4381
g3887
asS'c3da36a5749da0bcc6804d9c3'
p4382
(lp4383
g229
asS'2c132514c20e17024042dc960'
p4384
(lp4385
g986
asS'0261e3ce8a7c2d19de7e16d08'
p4386
(lp4387
g305
asS'504039bd8d14c7ac9a03147d0'
p4388
(lp4389
g630
asS'8c4a0385e9f951b9d2ce0945f'
p4390
(lp4391
g1505
asS'370e0a69904cfd32ba8f75f63'
p4392
(lp4393
g1109
asS'ad2d300090fcb50e16eca9f86'
p4394
(lp4395
g229
asS'f83630aa872b1edc8cc3c3f03'
p4396
(lp4397
g3003
asS'6ddbbb2b4ac7d276975741e2b'
p4398
(lp4399
g1593
asS'2207b9c4c42015cc5b1333c6d'
p4400
(lp4401
g1149
asS'bba013725038f739023d33dcf'
p4402
(lp4403
g557
asS'8bfc4bb3b02689a151e76b028'
p4404
(lp4405
g562
asS'96b6fb426d90ae1126dcdcd59'
p4406
(lp4407
g1158
asS'4a0bfeed9b2c760502b56e098'
p4408
(lp4409
g1346
asS'02a5e945928ce42ab60f25d8a'
p4410
(lp4411
g1193
asS'f8ec7c8b08c55a9cd7fc23887'
p4412
(lp4413
g575
asS'6ea5bd69e8e0449f761d6d059'
p4414
(lp4415
g3902
asS'c91fc6bdc1dfcb461a5b8368b'
p4416
(lp4417
g204
asS'e046ad7803cd89c6235388876'
p4418
(lp4419
g1891
asS'd11dcd92567464d55421512ec'
p4420
(lp4421
g1814
asS'8dc459ee63b51cf6dc46f1090'
p4422
(lp4423
g594
asS'7c5c5f98331892ddb604da223'
p4424
(lp4425
g1880
asS'9e3946bf9e44d8539f3a5d7b6'
p4426
(lp4427
g2640
asS'9ed10e895258f9cd3155c8656'
p4428
(lp4429
g365
asS'3882d3d572320a89c6d176b5c'
p4430
(lp4431
g239
asS'4b8ddab9e27384debd7b7b170'
p4432
(lp4433
g374
asS'951c0fe827a989d77794d20b7'
p4434
(lp4435
g219
asS'f0c028edc2e9cd3bf6991a0db'
p4436
(lp4437
g1357
asS'b9ad0605611d49c2112ab975e'
p4438
(lp4439
g1432
asS'ea6fd1ac9616d64d5c5d1eeb0'
p4440
(lp4441
g458
asS'33339740e44c4e2d50ad8fb58'
p4442
(lp4443
g1337
asS'15404a472e5aaf162cf915ef1'
p4444
(lp4445
g362
asS'244da48f81d6166acaac09ffa'
p4446
(lp4447
g1318
asS'70bdcd5e08d14fb70b56f95e9'
p4448
(lp4449
g3785
asS'5fc48c223aa467caa9e8d704a'
p4450
(lp4451
g45
asS'5d94ecce67907766ee9ad082c'
p4452
(lp4453
g1229
asS'fec426ed7a5568a2acad65071'
p4454
(lp4455
g266
asS'd7987160031023a5f2223cae9'
p4456
(lp4457
g1088
asS'7cd47ab26c76ea2fb1ba63dcb'
p4458
(lp4459
g1198
asS'3171b75108c0471bc71736807'
p4460
(lp4461
g1744
asS'0edbe9b29575dafc018f125f4'
p4462
(lp4463
g1683
asS'334fffbfa07f7b4b540bc14cf'
p4464
(lp4465
g824
asS'd49e856951276c7757ef68b29'
p4466
(lp4467
g3368
asS'7a3694ce954089c246c372b0a'
p4468
(lp4469
g1324
asS'5ae04acedf36ae330b186741a'
p4470
(lp4471
g1465
asS'649429d630bf2f016bdee040f'
p4472
(lp4473
g209
asS'a918814d4209f0c782b0b5c58'
p4474
(lp4475
g298
asS'e45c01645cf79b991e40d2c55'
p4476
(lp4477
g1085
asS'bbd66ab4680fba46dc72fe035'
p4478
(lp4479
g288
asS'ccce04f17bb7e4c4436e51ed0'
p4480
(lp4481
g1674
ag1814
asS'd254a2dc9bd152620872a4c15'
p4482
(lp4483
g1297
asS'6a2d73b09ed3a1d659d5909c4'
p4484
(lp4485
g2030
asS'501b9365864de3ef4bbce303c'
p4486
(lp4487
g804
asS'dcf6fc86193b12c789cdd88b3'
p4488
(lp4489
g926
asS'dffa649b1b30ad2d69a626f65'
p4490
(lp4491
g347
asS'812a734d86eb559aad0e3f0a0'
p4492
(lp4493
g2066
asS'be80461ebc1b7bad2ed47758d'
p4494
(lp4495
g2797
asS'2607ef081e137ffc508573366'
p4496
(lp4497
g107
asS'e0ba9cd5a5b6260c05acf5e57'
p4498
(lp4499
g506
asS'ae01bce218cd3e7689150f22c'
p4500
(lp4501
g1327
asS'f7a3afb832802ecf6e497c442'
p4502
(lp4503
g876
asS'3b2a1026cbadda1ed376bcab0'
p4504
(lp4505
g288
asS'8b343bcbf1707db5bd68b6684'
p4506
(lp4507
g776
asS'33b405562677a70c2d36d5b85'
p4508
(lp4509
g1642
asS'cce38c7ee7de9a42e0be20038'
p4510
(lp4511
g194
ag122
asS'008aff4477c7323991451750a'
p4512
(lp4513
g582
asS'77985b93d95e65441289275be'
p4514
(lp4515
g1460
asS'cc5b3ef66e5a7d1cd63b051a2'
p4516
(lp4517
g362
asS'858d7403a06b8ac80689bd27c'
p4518
(lp4519
g1318
asS'743c90fa0e3926cf85836b621'
p4520
(lp4521
g804
asS'd5fb5a95276cdf5e3c6cf3705'
p4522
(lp4523
g448
asS'6b27a7c8438a727489493835e'
p4524
(lp4525
g1891
asS'fc19d52a7bc5490a2d516b373'
p4526
(lp4527
g20
asS'948b0dd2d28f2683b8fc45f77'
p4528
(lp4529
g374
asS'6604b9b8326ff824c1b84706f'
p4530
(lp4531
g771
asS'b15e2dbe0412b143f2f40cea9'
p4532
(lp4533
g3270
asS'637d382cd422b4f1deac6d89f'
p4534
(lp4535
g428
asS'59f7891a307d53ac019d817f3'
p4536
(lp4537
g714
asS'b66dde61e67182e480683964e'
p4538
(lp4539
g1982
asS'd34810958144e5af9c5a66cb0'
p4540
(lp4541
g1158
ag951
ag6
(g10
S'\x1f\x07\x00\x00\x00\x00\x00\x00'
p4542
tp4543
Rp4544
asS'b9c2e5d112e07fe1ccaf8e4ff'
p4545
(lp4546
g441
asS'51b79d6e4a3e86555b5bc12c5'
p4547
(lp4548
g1126
asS'88d5221e33dcb63c1d9d222f1'
p4549
(lp4550
g570
asS'2dbe24685111602c0d2918fa7'
p4551
(lp4552
g550
asS'38b40ec6a429da0144dbd3025'
p4553
(lp4554
g365
asS'b313e74cf0b5ea1d2f4e9fbf8'
p4555
(lp4556
g1432
asS'd3a09034b179574861cbe3f3c'
p4557
(lp4558
g436
asS'f7d0726ddb2597b37729acdd8'
p4559
(lp4560
g809
asS'a3e9ee22a6c96b11c9cbff728'
p4561
(lp4562
g298
asS'2e04bbc0ee59861dd77663efa'
p4563
(lp4564
g1283
asS'684ed19cf9ee68b6a02e7dd03'
p4565
(lp4566
g1045
asS'b7020dbd43e38a182e25b2b41'
p4567
(lp4568
g1198
asS'535758936ec9a5c598de4dfe3'
p4569
(lp4570
g714
asS'e2d49701cf8baa1c941cdbea5'
p4571
(lp4572
g702
asS'a6406cf159cac29906e2b4393'
p4573
(lp4574
g2620
asS'b829eedad87614ecd5bf8d4ac'
p4575
(lp4576
g490
asS'7bef63a2f2324ac7483e29ead'
p4577
(lp4578
g1795
asS'7b04614e0949b8a41cbdc18d4'
p4579
(lp4580
g809
asS'acf72d278c1404bcf8c8e1d8e'
p4581
(lp4582
g1786
asS'2d337adce2e2223a25417cf38'
p4583
(lp4584
g535
asS'44c4c5d2efc965a8590efc896'
p4585
(lp4586
g685
asS'f79ed56551743919afe738bcd'
p4587
(lp4588
g557
asS'4c92e3a6e846799f608f85619'
p4589
(lp4590
g1432
asS'de14dff5dd71dfe2b46a15fd2'
p4591
(lp4592
g1163
asS'dd5a2dd9c1acf52c750fc89c4'
p4593
(lp4594
g926
asS'cf5022351ba7df4473bf05028'
p4595
(lp4596
g540
asS'90c708da4d3689bc45dd9af92'
p4597
(lp4598
g933
asS'b9a1a743cb7376be450010430'
p4599
(lp4600
g2213
asS'f8d0926dfcb08fc4c2fc43d3e'
p4601
(lp4602
g1318
asS'76022d37f3c39124581f46e79'
p4603
(lp4604
g1248
asS'ca892ee26588f26f86f18c79a'
p4605
(lp4606
g1248
asS'74fc7f2fcd3a38eeaa710d7e1'
p4607
(lp4608
g347
asS'778a238b9ebdd0c4600df15e9'
p4609
(lp4610
g214
ag453
asS'0183cb18a9af9bfc3bdda6eb3'
p4611
(lp4612
g134
asS'cd55aa2799891b6a10dc521f7'
p4613
(lp4614
g1321
asS'effada0f3d64beb2d64f9c56a'
p4615
(lp4616
g20
asS'47e556e51bba044f920daf8aa'
p4617
(lp4618
g2091
asS'2eeba0a9e935f3fb81156ed0b'
p4619
(lp4620
g582
asS'263bbe85d9f838cbd46cd504c'
p4621
(lp4622
g6
(g10
S'\x12\x07\x00\x00\x00\x00\x00\x00'
p4623
tp4624
Rp4625
asS'f10cea0e556078a379ed03021'
p4626
(lp4627
g448
asS'd6ae0bc231386bc0f1a1a967f'
p4628
(lp4629
g731
asS'66c0fed91e486704841748b8c'
p4630
(lp4631
g413
asS'a0fbd1da891e3205c912a96a9'
p4632
(lp4633
g933
asS'c67923a469789946335c01c32'
p4634
(lp4635
g1001
asS'cec48cdbae26a1f6d92c10da9'
p4636
(lp4637
g2096
asS'1427188f4287e9bcf9218b9fb'
p4638
(lp4639
g3587
asS'ef5bc5435f22473ff90bfb3cc'
p4640
(lp4641
g256
asS'0d57b703ea8fd53fb970c0237'
p4642
(lp4643
g1580
asS'1843cb433903534d157cf0d6c'
p4644
(lp4645
g342
asS'15abd42cb5f67e71adb9257c8'
p4646
(lp4647
g1236
asS'056f5cc183346dc7cb29c7b46'
p4648
(lp4649
g204
asS'70953e2939c01b53c8bd8cf66'
p4650
(lp4651
g82
asS'cbf0fc7c6299c35a402b6caeb'
p4652
(lp4653
g485
asS'531c7bd2fa508420681155d4e'
p4654
(lp4655
g709
asS'b877298ce236bf3236c1fbfde'
p4656
(lp4657
g692
asS'479213f1afe8853daffb347d2'
p4658
(lp4659
g1085
asS'b07bdbe953f9a78936021c1b2'
p4660
(lp4661
g1534
asS'63fb9048af6034522970bc747'
p4662
(lp4663
g179
ag794
asS'028e825f8c2d0fd88bc0f18a7'
p4664
(lp4665
g1243
asS'8cd293ae641133db78eaec3ce'
p4666
(lp4667
g1662
asS'fffc3fa55cf6531de59e5d43c'
p4668
(lp4669
g473
asS'c962dee41a1783dfe2e639db1'
p4670
(lp4671
g838
asS'0e728ab14621bb105223cc8a5'
p4672
(lp4673
g169
asS'c1701c98c83c68bb0375b496d'
p4674
(lp4675
g1911
asS'6e0d5a8473a923f2dd2978f40'
p4676
(lp4677
g322
asS'92b9ee234cae44acf0d176596'
p4678
(lp4679
g1364
asS'fa97737feb6773eb6e0e8177d'
p4680
(lp4681
g535
asS'70c013e4f15dc0f42808eaf42'
p4682
(lp4683
g1975
asS'579dd9ba37ad1a921102a999f'
p4684
(lp4685
g2640
asS'51041c70a0b7aacf93fc10555'
p4686
(lp4687
g4228
asS'4fb303c3729fce5b67ad2e2f7'
p4688
(lp4689
g2915
asS'2bc4cf12fd78f3fa9c501b5ed'
p4690
(lp4691
g1224
asS'56850b7ec7b72b68166eea97d'
p4692
(lp4693
g1327
asS'580d3bd6ac64f58e997f58b94'
p4694
(lp4695
g692
asS'c784666cdd399914ca24695b1'
p4696
(lp4697
g829
asS'984db987d5d0448eeadee17fb'
p4698
(lp4699
g1324
asS'920dce0295e58e818465ffdb5'
p4700
(lp4701
g1744
asS'2b50ac006efa43b244ce288f3'
p4702
(lp4703
g1236
asS'401da4464c01a5b781cf6668c'
p4704
(lp4705
g1052
asS'2a4f70a671cc941612edbc45f'
p4706
(lp4707
g431
asS'97f3f7efe78db7913bf1dc511'
p4708
(lp4709
g946
asS'c10354298448b44484fc01bff'
p4710
(lp4711
g1523
asS'a920bf39443ea4aa95abc9418'
p4712
(lp4713
g214
asS'4d053bb721db78c3870d6003c'
p4714
(lp4715
g1174
ag1210
ag1725
ag731
asS'd22749dcbec0a0f72292c45d1'
p4716
(lp4717
g184
asS'355f992d8bf84bd68ee150de6'
p4718
(lp4719
g1989
asS'5f5e722ecafc6bd873cc4b06f'
p4720
(lp4721
g1217
asS'0fe45449ea27e9577f3093a49'
p4722
(lp4723
g1523
asS'83e1428d4d3c8b890e307c0f1'
p4724
(lp4725
g428
asS'c2d9662332fef7743c81c2d32'
p4726
(lp4727
g1091
asS'e967a627ac1d6a6b86f3a3bcd'
p4728
(lp4729
g164
asS'fc00b88b05dfc9a72739b506f'
p4730
(lp4731
g463
asS'703eb304dd0e988291c7062b8'
p4732
(lp4733
g1290
asS'37215c9f5754b8518481673c8'
p4734
(lp4735
g869
asS'872fd8b3170ea86e63e793919'
p4736
(lp4737
g1337
asS'95ab3c67e654c5c0890a81dc3'
p4738
(lp4739
g139
asS'af1d00a9f1de685ccab2c4b2e'
p4740
(lp4741
g951
asS'42f7e50162292ab0fd3d86863'
p4742
(lp4743
g122
asS'7be175254a1726779ec5c6ec3'
p4744
(lp4745
g784
asS'e6df02f79f4703d8da922e3e6'
p4746
(lp4747
g1460
asS'c9623624786d5847cda856354'
p4748
(lp4749
g234
asS'8d75abe43e853f306abed3c6c'
p4750
(lp4751
g853
asS'b07b3fa6c079a9e7a7ca8b38b'
p4752
(lp4753
g1121
asS'8801c44b06d6e97630c16e11c'
p4754
(lp4755
g1492
asS'bb4ac9efb9bd5f62c899b3413'
p4756
(lp4757
g214
asS'3988c66b9db540e922f0f0a70'
p4758
(lp4759
g657
asS'6262a7ae258b8dcf436a5872f'
p4760
(lp4761
g1210
asS'fd6b0223ef822d5aeeb123b42'
p4762
(lp4763
g2030
asS'f8987e789ce66853bf10f72fc'
p4764
(lp4765
g204
as.